
Allocating common symbols
Common symbol       size              file

USB_AltSetting      0x4               build/usbcore.o
EP0Buf              0x8               build/usbcore.o
USB_EndPointMask    0x4               build/usbcore.o
USB_DeviceAddress   0x1               build/usbcore.o
BulkBufOut          0x40              build/cdcuser.o
USB_EndPointStall   0x4               build/usbcore.o
NotificationBuf     0xa               build/cdcuser.o
ser_in              0x88              build/serial.o
mp_state_ctx        0x1b4             build/py/mpstate.o
ser_txRestart       0x4               build/serial.o
BulkBufIn           0x40              build/cdcuser.o
USB_EndPointHalt    0x4               build/usbcore.o
USB_Configuration   0x1               build/usbcore.o
ser_lineState       0x2               build/serial.o
SetupPacket         0x8               build/usbcore.o
USB_NumInterfaces   0x1               build/usbcore.o
ser_out             0x88              build/serial.o
EP0Data             0x8               build/usbcore.o
CDC_OutBuf          0x48              build/cdcuser.o
USB_DeviceStatus    0x2               build/usbcore.o

Discarded input sections

 .text          0x0000000000000000        0x0 build/py/mpstate.o
 .data          0x0000000000000000        0x0 build/py/mpstate.o
 .bss           0x0000000000000000        0x0 build/py/mpstate.o
 .text          0x0000000000000000        0x0 build/py/nlr.o
 .data          0x0000000000000000        0x0 build/py/nlr.o
 .bss           0x0000000000000000        0x0 build/py/nlr.o
 .text          0x0000000000000000        0x0 build/py/nlrx86.o
 .data          0x0000000000000000        0x0 build/py/nlrx86.o
 .bss           0x0000000000000000        0x0 build/py/nlrx86.o
 .text          0x0000000000000000        0x0 build/py/nlrx64.o
 .data          0x0000000000000000        0x0 build/py/nlrx64.o
 .bss           0x0000000000000000        0x0 build/py/nlrx64.o
 .text          0x0000000000000000        0x0 build/py/nlrthumb.o
 .data          0x0000000000000000        0x0 build/py/nlrthumb.o
 .bss           0x0000000000000000        0x0 build/py/nlrthumb.o
 .text          0x0000000000000000        0x0 build/py/nlrpowerpc.o
 .data          0x0000000000000000        0x0 build/py/nlrpowerpc.o
 .bss           0x0000000000000000        0x0 build/py/nlrpowerpc.o
 .text          0x0000000000000000        0x0 build/py/nlrxtensa.o
 .data          0x0000000000000000        0x0 build/py/nlrxtensa.o
 .bss           0x0000000000000000        0x0 build/py/nlrxtensa.o
 .text          0x0000000000000000        0x0 build/py/nlrsetjmp.o
 .data          0x0000000000000000        0x0 build/py/nlrsetjmp.o
 .bss           0x0000000000000000        0x0 build/py/nlrsetjmp.o
 .text          0x0000000000000000        0x0 build/py/malloc.o
 .data          0x0000000000000000        0x0 build/py/malloc.o
 .bss           0x0000000000000000        0x0 build/py/malloc.o
 .text          0x0000000000000000        0x0 build/py/gc.o
 .data          0x0000000000000000        0x0 build/py/gc.o
 .bss           0x0000000000000000        0x0 build/py/gc.o
 .text.gc_sweep_all
                0x0000000000000000       0x1c build/py/gc.o
 .text.gc_nbytes
                0x0000000000000000       0x68 build/py/gc.o
 .text.gc_dump_alloc_table
                0x0000000000000000      0x180 build/py/gc.o
 .rodata.gc_dump_alloc_table.str1.4
                0x0000000000000000       0x47 build/py/gc.o
 .text          0x0000000000000000        0x0 build/py/pystack.o
 .data          0x0000000000000000        0x0 build/py/pystack.o
 .bss           0x0000000000000000        0x0 build/py/pystack.o
 .text          0x0000000000000000        0x0 build/py/qstr.o
 .data          0x0000000000000000        0x0 build/py/qstr.o
 .bss           0x0000000000000000        0x0 build/py/qstr.o
 .text.qstr_from_str
                0x0000000000000000       0x14 build/py/qstr.o
 .text.qstr_pool_info
                0x0000000000000000       0x78 build/py/qstr.o
 .text          0x0000000000000000        0x0 build/py/vstr.o
 .data          0x0000000000000000        0x0 build/py/vstr.o
 .bss           0x0000000000000000        0x0 build/py/vstr.o
 .text.vstr_new
                0x0000000000000000       0x16 build/py/vstr.o
 .text.vstr_free
                0x0000000000000000       0x1e build/py/vstr.o
 .text.vstr_hint_size
                0x0000000000000000        0x4 build/py/vstr.o
 .text.vstr_cut_head_bytes
                0x0000000000000000        0x8 build/py/vstr.o
 .text.vstr_vprintf
                0x0000000000000000       0x18 build/py/vstr.o
 .text.vstr_printf
                0x0000000000000000       0x1a build/py/vstr.o
 .text          0x0000000000000000        0x0 build/py/mpprint.o
 .data          0x0000000000000000        0x0 build/py/mpprint.o
 .bss           0x0000000000000000        0x0 build/py/mpprint.o
 .text          0x0000000000000000        0x0 build/py/unicode.o
 .data          0x0000000000000000        0x0 build/py/unicode.o
 .bss           0x0000000000000000        0x0 build/py/unicode.o
 .text.unichar_isalnum
                0x0000000000000000       0x1c build/py/unicode.o
 .text          0x0000000000000000        0x0 build/py/mpz.o
 .data          0x0000000000000000        0x0 build/py/mpz.o
 .bss           0x0000000000000000        0x0 build/py/mpz.o
 .text          0x0000000000000000        0x0 build/py/reader.o
 .data          0x0000000000000000        0x0 build/py/reader.o
 .bss           0x0000000000000000        0x0 build/py/reader.o
 .text          0x0000000000000000        0x0 build/py/lexer.o
 .data          0x0000000000000000        0x0 build/py/lexer.o
 .bss           0x0000000000000000        0x0 build/py/lexer.o
 .text          0x0000000000000000        0x0 build/py/parse.o
 .data          0x0000000000000000        0x0 build/py/parse.o
 .bss           0x0000000000000000        0x0 build/py/parse.o
 .text          0x0000000000000000        0x0 build/py/scope.o
 .data          0x0000000000000000        0x0 build/py/scope.o
 .bss           0x0000000000000000        0x0 build/py/scope.o
 .text          0x0000000000000000        0x0 build/py/compile.o
 .data          0x0000000000000000        0x0 build/py/compile.o
 .bss           0x0000000000000000        0x0 build/py/compile.o
 .text          0x0000000000000000        0x0 build/py/emitcommon.o
 .data          0x0000000000000000        0x0 build/py/emitcommon.o
 .bss           0x0000000000000000        0x0 build/py/emitcommon.o
 .text          0x0000000000000000        0x0 build/py/emitbc.o
 .data          0x0000000000000000        0x0 build/py/emitbc.o
 .bss           0x0000000000000000        0x0 build/py/emitbc.o
 .text          0x0000000000000000        0x0 build/py/asmbase.o
 .data          0x0000000000000000        0x0 build/py/asmbase.o
 .bss           0x0000000000000000        0x0 build/py/asmbase.o
 .text          0x0000000000000000        0x0 build/py/asmx64.o
 .data          0x0000000000000000        0x0 build/py/asmx64.o
 .bss           0x0000000000000000        0x0 build/py/asmx64.o
 .text          0x0000000000000000        0x0 build/py/emitnx64.o
 .data          0x0000000000000000        0x0 build/py/emitnx64.o
 .bss           0x0000000000000000        0x0 build/py/emitnx64.o
 .text          0x0000000000000000        0x0 build/py/asmx86.o
 .data          0x0000000000000000        0x0 build/py/asmx86.o
 .bss           0x0000000000000000        0x0 build/py/asmx86.o
 .text          0x0000000000000000        0x0 build/py/emitnx86.o
 .data          0x0000000000000000        0x0 build/py/emitnx86.o
 .bss           0x0000000000000000        0x0 build/py/emitnx86.o
 .text          0x0000000000000000        0x0 build/py/asmthumb.o
 .data          0x0000000000000000        0x0 build/py/asmthumb.o
 .bss           0x0000000000000000        0x0 build/py/asmthumb.o
 .text          0x0000000000000000        0x0 build/py/emitnthumb.o
 .data          0x0000000000000000        0x0 build/py/emitnthumb.o
 .bss           0x0000000000000000        0x0 build/py/emitnthumb.o
 .text          0x0000000000000000        0x0 build/py/emitinlinethumb.o
 .data          0x0000000000000000        0x0 build/py/emitinlinethumb.o
 .bss           0x0000000000000000        0x0 build/py/emitinlinethumb.o
 .text          0x0000000000000000        0x0 build/py/asmarm.o
 .data          0x0000000000000000        0x0 build/py/asmarm.o
 .bss           0x0000000000000000        0x0 build/py/asmarm.o
 .text          0x0000000000000000        0x0 build/py/emitnarm.o
 .data          0x0000000000000000        0x0 build/py/emitnarm.o
 .bss           0x0000000000000000        0x0 build/py/emitnarm.o
 .text          0x0000000000000000        0x0 build/py/asmxtensa.o
 .data          0x0000000000000000        0x0 build/py/asmxtensa.o
 .bss           0x0000000000000000        0x0 build/py/asmxtensa.o
 .text          0x0000000000000000        0x0 build/py/emitnxtensa.o
 .data          0x0000000000000000        0x0 build/py/emitnxtensa.o
 .bss           0x0000000000000000        0x0 build/py/emitnxtensa.o
 .text          0x0000000000000000        0x0 build/py/emitinlinextensa.o
 .data          0x0000000000000000        0x0 build/py/emitinlinextensa.o
 .bss           0x0000000000000000        0x0 build/py/emitinlinextensa.o
 .text          0x0000000000000000        0x0 build/py/emitnxtensawin.o
 .data          0x0000000000000000        0x0 build/py/emitnxtensawin.o
 .bss           0x0000000000000000        0x0 build/py/emitnxtensawin.o
 .text          0x0000000000000000        0x0 build/py/formatfloat.o
 .data          0x0000000000000000        0x0 build/py/formatfloat.o
 .bss           0x0000000000000000        0x0 build/py/formatfloat.o
 .text          0x0000000000000000        0x0 build/py/parsenumbase.o
 .data          0x0000000000000000        0x0 build/py/parsenumbase.o
 .bss           0x0000000000000000        0x0 build/py/parsenumbase.o
 .text          0x0000000000000000        0x0 build/py/parsenum.o
 .data          0x0000000000000000        0x0 build/py/parsenum.o
 .bss           0x0000000000000000        0x0 build/py/parsenum.o
 .text          0x0000000000000000        0x0 build/py/emitglue.o
 .data          0x0000000000000000        0x0 build/py/emitglue.o
 .bss           0x0000000000000000        0x0 build/py/emitglue.o
 .text          0x0000000000000000        0x0 build/py/persistentcode.o
 .data          0x0000000000000000        0x0 build/py/persistentcode.o
 .bss           0x0000000000000000        0x0 build/py/persistentcode.o
 .text          0x0000000000000000        0x0 build/py/runtime.o
 .data          0x0000000000000000        0x0 build/py/runtime.o
 .bss           0x0000000000000000        0x0 build/py/runtime.o
 .text.mp_call_function_2
                0x0000000000000000       0x16 build/py/runtime.o
 .text          0x0000000000000000        0x0 build/py/runtime_utils.o
 .data          0x0000000000000000        0x0 build/py/runtime_utils.o
 .bss           0x0000000000000000        0x0 build/py/runtime_utils.o
 .text.mp_call_function_1_protected
                0x0000000000000000       0x34 build/py/runtime_utils.o
 .text.mp_call_function_2_protected
                0x0000000000000000       0x38 build/py/runtime_utils.o
 .text          0x0000000000000000        0x0 build/py/scheduler.o
 .data          0x0000000000000000        0x0 build/py/scheduler.o
 .bss           0x0000000000000000        0x0 build/py/scheduler.o
 .text          0x0000000000000000        0x0 build/py/nativeglue.o
 .data          0x0000000000000000        0x0 build/py/nativeglue.o
 .bss           0x0000000000000000        0x0 build/py/nativeglue.o
 .text          0x0000000000000000        0x0 build/py/pairheap.o
 .data          0x0000000000000000        0x0 build/py/pairheap.o
 .bss           0x0000000000000000        0x0 build/py/pairheap.o
 .text.mp_pairheap_meld
                0x0000000000000000       0x44 build/py/pairheap.o
 .text.mp_pairheap_pairing
                0x0000000000000000       0x42 build/py/pairheap.o
 .text.mp_pairheap_delete
                0x0000000000000000       0x7c build/py/pairheap.o
 .text          0x0000000000000000        0x0 build/py/ringbuf.o
 .data          0x0000000000000000        0x0 build/py/ringbuf.o
 .bss           0x0000000000000000        0x0 build/py/ringbuf.o
 .text.ringbuf_peek16
                0x0000000000000000       0x2a build/py/ringbuf.o
 .text.ringbuf_get16
                0x0000000000000000       0x20 build/py/ringbuf.o
 .text.ringbuf_put16
                0x0000000000000000       0x36 build/py/ringbuf.o
 .text          0x0000000000000000        0x0 build/py/stackctrl.o
 .data          0x0000000000000000        0x0 build/py/stackctrl.o
 .bss           0x0000000000000000        0x0 build/py/stackctrl.o
 .text.mp_stack_ctrl_init
                0x0000000000000000       0x10 build/py/stackctrl.o
 .text.mp_stack_set_top
                0x0000000000000000        0xc build/py/stackctrl.o
 .text.mp_stack_usage
                0x0000000000000000       0x14 build/py/stackctrl.o
 .text          0x0000000000000000        0x0 build/py/argcheck.o
 .data          0x0000000000000000        0x0 build/py/argcheck.o
 .bss           0x0000000000000000        0x0 build/py/argcheck.o
 .text.mp_arg_parse_all_kw_array
                0x0000000000000000       0x2c build/py/argcheck.o
 .text          0x0000000000000000        0x0 build/py/warning.o
 .data          0x0000000000000000        0x0 build/py/warning.o
 .bss           0x0000000000000000        0x0 build/py/warning.o
 .text          0x0000000000000000        0x0 build/py/profile.o
 .data          0x0000000000000000        0x0 build/py/profile.o
 .bss           0x0000000000000000        0x0 build/py/profile.o
 .text          0x0000000000000000        0x0 build/py/map.o
 .data          0x0000000000000000        0x0 build/py/map.o
 .bss           0x0000000000000000        0x0 build/py/map.o
 .text.mp_map_deinit
                0x0000000000000000       0x1e build/py/map.o
 .text          0x0000000000000000        0x0 build/py/obj.o
 .data          0x0000000000000000        0x0 build/py/obj.o
 .bss           0x0000000000000000        0x0 build/py/obj.o
 .text.mp_obj_print
                0x0000000000000000       0x10 build/py/obj.o
 .text.mp_obj_get_array_fixed_n
                0x0000000000000000       0x20 build/py/obj.o
 .rodata.mp_obj_get_array_fixed_n.str1.1
                0x0000000000000000        0x6 build/py/obj.o
 .text          0x0000000000000000        0x0 build/py/objarray.o
 .data          0x0000000000000000        0x0 build/py/objarray.o
 .bss           0x0000000000000000        0x0 build/py/objarray.o
 .text          0x0000000000000000        0x0 build/py/objattrtuple.o
 .data          0x0000000000000000        0x0 build/py/objattrtuple.o
 .bss           0x0000000000000000        0x0 build/py/objattrtuple.o
 .text          0x0000000000000000        0x0 build/py/objbool.o
 .data          0x0000000000000000        0x0 build/py/objbool.o
 .bss           0x0000000000000000        0x0 build/py/objbool.o
 .text          0x0000000000000000        0x0 build/py/objboundmeth.o
 .data          0x0000000000000000        0x0 build/py/objboundmeth.o
 .bss           0x0000000000000000        0x0 build/py/objboundmeth.o
 .text          0x0000000000000000        0x0 build/py/objcell.o
 .data          0x0000000000000000        0x0 build/py/objcell.o
 .bss           0x0000000000000000        0x0 build/py/objcell.o
 .text          0x0000000000000000        0x0 build/py/objclosure.o
 .data          0x0000000000000000        0x0 build/py/objclosure.o
 .bss           0x0000000000000000        0x0 build/py/objclosure.o
 .text          0x0000000000000000        0x0 build/py/objcomplex.o
 .data          0x0000000000000000        0x0 build/py/objcomplex.o
 .bss           0x0000000000000000        0x0 build/py/objcomplex.o
 .text          0x0000000000000000        0x0 build/py/objdeque.o
 .data          0x0000000000000000        0x0 build/py/objdeque.o
 .bss           0x0000000000000000        0x0 build/py/objdeque.o
 .text          0x0000000000000000        0x0 build/py/objdict.o
 .data          0x0000000000000000        0x0 build/py/objdict.o
 .bss           0x0000000000000000        0x0 build/py/objdict.o
 .rodata.mp_const_empty_dict_obj
                0x0000000000000000       0x10 build/py/objdict.o
 .text          0x0000000000000000        0x0 build/py/objenumerate.o
 .data          0x0000000000000000        0x0 build/py/objenumerate.o
 .bss           0x0000000000000000        0x0 build/py/objenumerate.o
 .text          0x0000000000000000        0x0 build/py/objexcept.o
 .data          0x0000000000000000        0x0 build/py/objexcept.o
 .bss           0x0000000000000000        0x0 build/py/objexcept.o
 .text.mp_obj_new_exception_args
                0x0000000000000000        0x8 build/py/objexcept.o
 .text.mp_obj_new_exception_msg_varg
                0x0000000000000000       0x1a build/py/objexcept.o
 .text.mp_obj_exception_clear_traceback
                0x0000000000000000       0x20 build/py/objexcept.o
 .text          0x0000000000000000        0x0 build/py/objfilter.o
 .data          0x0000000000000000        0x0 build/py/objfilter.o
 .bss           0x0000000000000000        0x0 build/py/objfilter.o
 .text          0x0000000000000000        0x0 build/py/objfloat.o
 .data          0x0000000000000000        0x0 build/py/objfloat.o
 .bss           0x0000000000000000        0x0 build/py/objfloat.o
 .text          0x0000000000000000        0x0 build/py/objfun.o
 .data          0x0000000000000000        0x0 build/py/objfun.o
 .bss           0x0000000000000000        0x0 build/py/objfun.o
 .text          0x0000000000000000        0x0 build/py/objgenerator.o
 .data          0x0000000000000000        0x0 build/py/objgenerator.o
 .bss           0x0000000000000000        0x0 build/py/objgenerator.o
 .text          0x0000000000000000        0x0 build/py/objgetitemiter.o
 .data          0x0000000000000000        0x0 build/py/objgetitemiter.o
 .bss           0x0000000000000000        0x0 build/py/objgetitemiter.o
 .text          0x0000000000000000        0x0 build/py/objint.o
 .data          0x0000000000000000        0x0 build/py/objint.o
 .bss           0x0000000000000000        0x0 build/py/objint.o
 .text.mp_obj_new_int_from_ull
                0x0000000000000000       0x14 build/py/objint.o
 .text          0x0000000000000000        0x0 build/py/objint_longlong.o
 .data          0x0000000000000000        0x0 build/py/objint_longlong.o
 .bss           0x0000000000000000        0x0 build/py/objint_longlong.o
 .text          0x0000000000000000        0x0 build/py/objint_mpz.o
 .data          0x0000000000000000        0x0 build/py/objint_mpz.o
 .bss           0x0000000000000000        0x0 build/py/objint_mpz.o
 .text          0x0000000000000000        0x0 build/py/objlist.o
 .data          0x0000000000000000        0x0 build/py/objlist.o
 .bss           0x0000000000000000        0x0 build/py/objlist.o
 .text          0x0000000000000000        0x0 build/py/objmap.o
 .data          0x0000000000000000        0x0 build/py/objmap.o
 .bss           0x0000000000000000        0x0 build/py/objmap.o
 .text          0x0000000000000000        0x0 build/py/objmodule.o
 .data          0x0000000000000000        0x0 build/py/objmodule.o
 .bss           0x0000000000000000        0x0 build/py/objmodule.o
 .text.mp_module_register
                0x0000000000000000       0x1c build/py/objmodule.o
 .text          0x0000000000000000        0x0 build/py/objobject.o
 .data          0x0000000000000000        0x0 build/py/objobject.o
 .bss           0x0000000000000000        0x0 build/py/objobject.o
 .text          0x0000000000000000        0x0 build/py/objpolyiter.o
 .data          0x0000000000000000        0x0 build/py/objpolyiter.o
 .bss           0x0000000000000000        0x0 build/py/objpolyiter.o
 .text          0x0000000000000000        0x0 build/py/objproperty.o
 .data          0x0000000000000000        0x0 build/py/objproperty.o
 .bss           0x0000000000000000        0x0 build/py/objproperty.o
 .text          0x0000000000000000        0x0 build/py/objnone.o
 .data          0x0000000000000000        0x0 build/py/objnone.o
 .bss           0x0000000000000000        0x0 build/py/objnone.o
 .text          0x0000000000000000        0x0 build/py/objnamedtuple.o
 .data          0x0000000000000000        0x0 build/py/objnamedtuple.o
 .bss           0x0000000000000000        0x0 build/py/objnamedtuple.o
 .text          0x0000000000000000        0x0 build/py/objrange.o
 .data          0x0000000000000000        0x0 build/py/objrange.o
 .bss           0x0000000000000000        0x0 build/py/objrange.o
 .text          0x0000000000000000        0x0 build/py/objreversed.o
 .data          0x0000000000000000        0x0 build/py/objreversed.o
 .bss           0x0000000000000000        0x0 build/py/objreversed.o
 .text          0x0000000000000000        0x0 build/py/objset.o
 .data          0x0000000000000000        0x0 build/py/objset.o
 .bss           0x0000000000000000        0x0 build/py/objset.o
 .text          0x0000000000000000        0x0 build/py/objsingleton.o
 .data          0x0000000000000000        0x0 build/py/objsingleton.o
 .bss           0x0000000000000000        0x0 build/py/objsingleton.o
 .text          0x0000000000000000        0x0 build/py/objslice.o
 .data          0x0000000000000000        0x0 build/py/objslice.o
 .bss           0x0000000000000000        0x0 build/py/objslice.o
 .text          0x0000000000000000        0x0 build/py/objstr.o
 .data          0x0000000000000000        0x0 build/py/objstr.o
 .bss           0x0000000000000000        0x0 build/py/objstr.o
 .text.str_index_to_ptr
                0x0000000000000000       0x14 build/py/objstr.o
 .text.mp_obj_str_intern
                0x0000000000000000       0x26 build/py/objstr.o
 .text          0x0000000000000000        0x0 build/py/objstrunicode.o
 .data          0x0000000000000000        0x0 build/py/objstrunicode.o
 .bss           0x0000000000000000        0x0 build/py/objstrunicode.o
 .text          0x0000000000000000        0x0 build/py/objstringio.o
 .data          0x0000000000000000        0x0 build/py/objstringio.o
 .bss           0x0000000000000000        0x0 build/py/objstringio.o
 .text          0x0000000000000000        0x0 build/py/objtuple.o
 .data          0x0000000000000000        0x0 build/py/objtuple.o
 .bss           0x0000000000000000        0x0 build/py/objtuple.o
 .text          0x0000000000000000        0x0 build/py/objtype.o
 .data          0x0000000000000000        0x0 build/py/objtype.o
 .bss           0x0000000000000000        0x0 build/py/objtype.o
 .text          0x0000000000000000        0x0 build/py/objzip.o
 .data          0x0000000000000000        0x0 build/py/objzip.o
 .bss           0x0000000000000000        0x0 build/py/objzip.o
 .text          0x0000000000000000        0x0 build/py/opmethods.o
 .data          0x0000000000000000        0x0 build/py/opmethods.o
 .bss           0x0000000000000000        0x0 build/py/opmethods.o
 .text.op_contains
                0x0000000000000000       0x18 build/py/opmethods.o
 .rodata.mp_op_contains_obj
                0x0000000000000000        0x8 build/py/opmethods.o
 .text          0x0000000000000000        0x0 build/py/sequence.o
 .data          0x0000000000000000        0x0 build/py/sequence.o
 .bss           0x0000000000000000        0x0 build/py/sequence.o
 .text.mp_seq_extract_slice
                0x0000000000000000       0x44 build/py/sequence.o
 .text          0x0000000000000000        0x0 build/py/stream.o
 .data          0x0000000000000000        0x0 build/py/stream.o
 .bss           0x0000000000000000        0x0 build/py/stream.o
 .text.mp_stream_close
                0x0000000000000000       0x20 build/py/stream.o
 .text.stream_flush
                0x0000000000000000       0x20 build/py/stream.o
 .text.stream_unbuffered_readline
                0x0000000000000000       0x90 build/py/stream.o
 .text.stream_unbuffered_readlines
                0x0000000000000000       0x32 build/py/stream.o
 .text.stream_seek
                0x0000000000000000       0x52 build/py/stream.o
 .text.stream_tell
                0x0000000000000000       0x18 build/py/stream.o
 .text.stream_ioctl
                0x0000000000000000       0x50 build/py/stream.o
 .text.mp_stream_rw
                0x0000000000000000       0x56 build/py/stream.o
 .text.stream_read_generic
                0x0000000000000000       0xc4 build/py/stream.o
 .text.stream_read
                0x0000000000000000        0x6 build/py/stream.o
 .text.stream_read1
                0x0000000000000000        0x6 build/py/stream.o
 .text.stream_readinto
                0x0000000000000000       0x4a build/py/stream.o
 .text.mp_get_stream_raise
                0x0000000000000000       0x38 build/py/stream.o
 .text.mp_stream_write
                0x0000000000000000       0x20 build/py/stream.o
 .text.stream_write_method
                0x0000000000000000       0x5e build/py/stream.o
 .text.stream_write1_method
                0x0000000000000000       0x1e build/py/stream.o
 .text.mp_stream_write_adaptor
                0x0000000000000000        0x6 build/py/stream.o
 .text.mp_stream_unbuffered_iter
                0x0000000000000000       0x20 build/py/stream.o
 .rodata.mp_get_stream_raise.str1.1
                0x0000000000000000       0x14 build/py/stream.o
 .rodata.mp_stream_close_obj
                0x0000000000000000        0x8 build/py/stream.o
 .rodata.mp_stream_flush_obj
                0x0000000000000000        0x8 build/py/stream.o
 .rodata.mp_stream_ioctl_obj
                0x0000000000000000        0xc build/py/stream.o
 .rodata.mp_stream_read1_obj
                0x0000000000000000        0xc build/py/stream.o
 .rodata.mp_stream_read_obj
                0x0000000000000000        0xc build/py/stream.o
 .rodata.mp_stream_readinto_obj
                0x0000000000000000        0xc build/py/stream.o
 .rodata.mp_stream_seek_obj
                0x0000000000000000        0xc build/py/stream.o
 .rodata.mp_stream_tell_obj
                0x0000000000000000        0x8 build/py/stream.o
 .rodata.mp_stream_unbuffered_readline_obj
                0x0000000000000000        0xc build/py/stream.o
 .rodata.mp_stream_unbuffered_readlines_obj
                0x0000000000000000        0x8 build/py/stream.o
 .rodata.mp_stream_write1_obj
                0x0000000000000000        0x8 build/py/stream.o
 .rodata.mp_stream_write_obj
                0x0000000000000000        0xc build/py/stream.o
 .text          0x0000000000000000        0x0 build/py/binary.o
 .data          0x0000000000000000        0x0 build/py/binary.o
 .bss           0x0000000000000000        0x0 build/py/binary.o
 .text.mp_binary_get_size
                0x0000000000000000       0x4c build/py/binary.o
 .text.mp_binary_get_val_array
                0x0000000000000000       0x66 build/py/binary.o
 .text.mp_binary_get_int
                0x0000000000000000       0x5a build/py/binary.o
 .text.mp_binary_get_val
                0x0000000000000000       0x9c build/py/binary.o
 .text.mp_binary_set_val
                0x0000000000000000       0x80 build/py/binary.o
 .text.mp_binary_set_val_array_from_int
                0x0000000000000000       0x46 build/py/binary.o
 .text.mp_binary_set_val_array
                0x0000000000000000       0x28 build/py/binary.o
 .rodata.CSWTCH.20
                0x0000000000000000       0x30 build/py/binary.o
 .rodata.CSWTCH.21
                0x0000000000000000       0x71 build/py/binary.o
 .rodata.CSWTCH.22
                0x0000000000000000       0x71 build/py/binary.o
 .rodata.mp_binary_get_size.str1.1
                0x0000000000000000        0xb build/py/binary.o
 .text          0x0000000000000000        0x0 build/py/builtinimport.o
 .data          0x0000000000000000        0x0 build/py/builtinimport.o
 .bss           0x0000000000000000        0x0 build/py/builtinimport.o
 .text          0x0000000000000000        0x0 build/py/builtinevex.o
 .data          0x0000000000000000        0x0 build/py/builtinevex.o
 .bss           0x0000000000000000        0x0 build/py/builtinevex.o
 .text          0x0000000000000000        0x0 build/py/builtinhelp.o
 .data          0x0000000000000000        0x0 build/py/builtinhelp.o
 .bss           0x0000000000000000        0x0 build/py/builtinhelp.o
 .text          0x0000000000000000        0x0 build/py/modarray.o
 .data          0x0000000000000000        0x0 build/py/modarray.o
 .bss           0x0000000000000000        0x0 build/py/modarray.o
 .text          0x0000000000000000        0x0 build/py/modbuiltins.o
 .data          0x0000000000000000        0x0 build/py/modbuiltins.o
 .bss           0x0000000000000000        0x0 build/py/modbuiltins.o
 .text          0x0000000000000000        0x0 build/py/modcollections.o
 .data          0x0000000000000000        0x0 build/py/modcollections.o
 .bss           0x0000000000000000        0x0 build/py/modcollections.o
 .text          0x0000000000000000        0x0 build/py/modgc.o
 .data          0x0000000000000000        0x0 build/py/modgc.o
 .bss           0x0000000000000000        0x0 build/py/modgc.o
 .text          0x0000000000000000        0x0 build/py/modio.o
 .data          0x0000000000000000        0x0 build/py/modio.o
 .bss           0x0000000000000000        0x0 build/py/modio.o
 .text          0x0000000000000000        0x0 build/py/modmath.o
 .data          0x0000000000000000        0x0 build/py/modmath.o
 .bss           0x0000000000000000        0x0 build/py/modmath.o
 .text          0x0000000000000000        0x0 build/py/modcmath.o
 .data          0x0000000000000000        0x0 build/py/modcmath.o
 .bss           0x0000000000000000        0x0 build/py/modcmath.o
 .text          0x0000000000000000        0x0 build/py/modmicropython.o
 .data          0x0000000000000000        0x0 build/py/modmicropython.o
 .bss           0x0000000000000000        0x0 build/py/modmicropython.o
 .text          0x0000000000000000        0x0 build/py/modstruct.o
 .data          0x0000000000000000        0x0 build/py/modstruct.o
 .bss           0x0000000000000000        0x0 build/py/modstruct.o
 .text          0x0000000000000000        0x0 build/py/modsys.o
 .data          0x0000000000000000        0x0 build/py/modsys.o
 .bss           0x0000000000000000        0x0 build/py/modsys.o
 .text          0x0000000000000000        0x0 build/py/moduerrno.o
 .data          0x0000000000000000        0x0 build/py/moduerrno.o
 .bss           0x0000000000000000        0x0 build/py/moduerrno.o
 .text          0x0000000000000000        0x0 build/py/modthread.o
 .data          0x0000000000000000        0x0 build/py/modthread.o
 .bss           0x0000000000000000        0x0 build/py/modthread.o
 .text          0x0000000000000000        0x0 build/py/vm.o
 .data          0x0000000000000000        0x0 build/py/vm.o
 .bss           0x0000000000000000        0x0 build/py/vm.o
 .text          0x0000000000000000        0x0 build/py/bc.o
 .data          0x0000000000000000        0x0 build/py/bc.o
 .bss           0x0000000000000000        0x0 build/py/bc.o
 .text          0x0000000000000000        0x0 build/py/showbc.o
 .data          0x0000000000000000        0x0 build/py/showbc.o
 .bss           0x0000000000000000        0x0 build/py/showbc.o
 .text          0x0000000000000000        0x0 build/py/repl.o
 .data          0x0000000000000000        0x0 build/py/repl.o
 .bss           0x0000000000000000        0x0 build/py/repl.o
 .text          0x0000000000000000        0x0 build/py/smallint.o
 .data          0x0000000000000000        0x0 build/py/smallint.o
 .bss           0x0000000000000000        0x0 build/py/smallint.o
 .text          0x0000000000000000        0x0 build/py/frozenmod.o
 .data          0x0000000000000000        0x0 build/py/frozenmod.o
 .bss           0x0000000000000000        0x0 build/py/frozenmod.o
 .text          0x0000000000000000        0x0 build/main.o
 .data          0x0000000000000000        0x0 build/main.o
 .bss           0x0000000000000000        0x0 build/main.o
 .text.do_str   0x0000000000000000       0x54 build/main.o
 .text.__fatal_error
                0x0000000000000000        0x2 build/main.o
 .text          0x0000000000000000        0x0 build/mhalport.o
 .data          0x0000000000000000        0x0 build/mhalport.o
 .bss           0x0000000000000000        0x0 build/mhalport.o
 .text          0x0000000000000000        0x0 build/lib/utils/printf.o
 .data          0x0000000000000000        0x0 build/lib/utils/printf.o
 .bss           0x0000000000000000        0x0 build/lib/utils/printf.o
 .text.printf   0x0000000000000000       0x20 build/lib/utils/printf.o
 .text.vprintf  0x0000000000000000       0x10 build/lib/utils/printf.o
 .text.putchar  0x0000000000000000       0x1a build/lib/utils/printf.o
 .text.puts     0x0000000000000000       0x24 build/lib/utils/printf.o
 .text          0x0000000000000000        0x0 build/lib/utils/stdout_helpers.o
 .data          0x0000000000000000        0x0 build/lib/utils/stdout_helpers.o
 .bss           0x0000000000000000        0x0 build/lib/utils/stdout_helpers.o
 .text          0x0000000000000000        0x0 build/lib/utils/pyexec.o
 .data          0x0000000000000000        0x0 build/lib/utils/pyexec.o
 .bss           0x0000000000000000        0x0 build/lib/utils/pyexec.o
 .text.mp_reader_stdin_close
                0x0000000000000000       0x20 build/lib/utils/pyexec.o
 .text.mp_reader_stdin_readbyte
                0x0000000000000000       0x58 build/lib/utils/pyexec.o
 .text.pyexec_raw_repl
                0x0000000000000000      0x12c build/lib/utils/pyexec.o
 .text.pyexec_file
                0x0000000000000000        0x8 build/lib/utils/pyexec.o
 .text.pyexec_frozen_module
                0x0000000000000000       0x34 build/lib/utils/pyexec.o
 .text.pyexec_file_if_exists
                0x0000000000000000       0x2c build/lib/utils/pyexec.o
 .rodata        0x0000000000000000        0x3 build/lib/utils/pyexec.o
 .rodata.mp_reader_stdin_readbyte.str1.1
                0x0000000000000000        0x2 build/lib/utils/pyexec.o
 .rodata.pyexec_frozen_module.str1.1
                0x0000000000000000       0x1c build/lib/utils/pyexec.o
 .text          0x0000000000000000        0x0 build/lib/mp-readline/readline.o
 .data          0x0000000000000000        0x0 build/lib/mp-readline/readline.o
 .bss           0x0000000000000000        0x0 build/lib/mp-readline/readline.o
 .text.readline_init0
                0x0000000000000000       0x10 build/lib/mp-readline/readline.o
 .text.readline_note_newline
                0x0000000000000000       0x20 build/lib/mp-readline/readline.o
 .text          0x0000000000000000        0x0 build/build/_frozen_mpy.o
 .data          0x0000000000000000        0x0 build/build/_frozen_mpy.o
 .bss           0x0000000000000000        0x0 build/build/_frozen_mpy.o
 .text          0x0000000000000000        0x0 build/system_LPC17xx.o
 .data          0x0000000000000000        0x0 build/system_LPC17xx.o
 .bss           0x0000000000000000        0x0 build/system_LPC17xx.o
 .text.SystemCoreClockUpdate
                0x0000000000000000       0x9c build/system_LPC17xx.o
 .text          0x0000000000000000        0x0 build/core_cm3.o
 .data          0x0000000000000000        0x0 build/core_cm3.o
 .bss           0x0000000000000000        0x0 build/core_cm3.o
 .text.__get_PSP
                0x0000000000000000        0x8 build/core_cm3.o
 .text.__set_PSP
                0x0000000000000000        0x6 build/core_cm3.o
 .text.__get_MSP
                0x0000000000000000        0x8 build/core_cm3.o
 .text.__set_MSP
                0x0000000000000000        0x6 build/core_cm3.o
 .text.__get_BASEPRI
                0x0000000000000000        0x6 build/core_cm3.o
 .text.__set_BASEPRI
                0x0000000000000000        0x6 build/core_cm3.o
 .text.__get_PRIMASK
                0x0000000000000000        0x6 build/core_cm3.o
 .text.__set_PRIMASK
                0x0000000000000000        0x6 build/core_cm3.o
 .text.__get_FAULTMASK
                0x0000000000000000        0x6 build/core_cm3.o
 .text.__set_FAULTMASK
                0x0000000000000000        0x6 build/core_cm3.o
 .text.__get_CONTROL
                0x0000000000000000        0x6 build/core_cm3.o
 .text.__set_CONTROL
                0x0000000000000000        0x6 build/core_cm3.o
 .text.__REV    0x0000000000000000        0x4 build/core_cm3.o
 .text.__REV16  0x0000000000000000        0x4 build/core_cm3.o
 .text.__REVSH  0x0000000000000000        0x4 build/core_cm3.o
 .text.__RBIT   0x0000000000000000        0x6 build/core_cm3.o
 .text.__LDREXB
                0x0000000000000000        0x8 build/core_cm3.o
 .text.__LDREXH
                0x0000000000000000        0x8 build/core_cm3.o
 .text.__LDREXW
                0x0000000000000000        0x6 build/core_cm3.o
 .text.__STREXB
                0x0000000000000000        0x8 build/core_cm3.o
 .text.__STREXH
                0x0000000000000000        0x8 build/core_cm3.o
 .text.__STREXW
                0x0000000000000000        0x6 build/core_cm3.o
 .text          0x0000000000000000        0x0 build/usbcore.o
 .data          0x0000000000000000        0x0 build/usbcore.o
 .bss           0x0000000000000000        0x0 build/usbcore.o
 .text          0x0000000000000000        0x0 build/usbdesc.o
 .data          0x0000000000000000        0x0 build/usbdesc.o
 .bss           0x0000000000000000        0x0 build/usbdesc.o
 .text          0x0000000000000000        0x0 build/usbhw.o
 .data          0x0000000000000000        0x0 build/usbhw.o
 .bss           0x0000000000000000        0x0 build/usbhw.o
 .text.USB_Suspend
                0x0000000000000000        0x2 build/usbhw.o
 .text.USB_Resume
                0x0000000000000000        0x2 build/usbhw.o
 .text.USB_WakeUp
                0x0000000000000000       0x20 build/usbhw.o
 .text.USB_ClearEPBuf
                0x0000000000000000        0xc build/usbhw.o
 .text.USB_GetFrame
                0x0000000000000000       0x28 build/usbhw.o
 .text          0x0000000000000000        0x0 build/usbuser.o
 .data          0x0000000000000000        0x0 build/usbuser.o
 .bss           0x0000000000000000        0x0 build/usbuser.o
 .text.USB_EndPoint3
                0x0000000000000000        0x2 build/usbuser.o
 .text.USB_EndPoint4
                0x0000000000000000        0x2 build/usbuser.o
 .text.USB_EndPoint5
                0x0000000000000000        0x2 build/usbuser.o
 .text.USB_EndPoint6
                0x0000000000000000        0x2 build/usbuser.o
 .text.USB_EndPoint7
                0x0000000000000000        0x2 build/usbuser.o
 .text.USB_EndPoint8
                0x0000000000000000        0x2 build/usbuser.o
 .text.USB_EndPoint9
                0x0000000000000000        0x2 build/usbuser.o
 .text.USB_EndPoint10
                0x0000000000000000        0x2 build/usbuser.o
 .text.USB_EndPoint11
                0x0000000000000000        0x2 build/usbuser.o
 .text.USB_EndPoint12
                0x0000000000000000        0x2 build/usbuser.o
 .text.USB_EndPoint13
                0x0000000000000000        0x2 build/usbuser.o
 .text.USB_EndPoint14
                0x0000000000000000        0x2 build/usbuser.o
 .text.USB_EndPoint15
                0x0000000000000000        0x2 build/usbuser.o
 .text          0x0000000000000000        0x0 build/cdcuser.o
 .data          0x0000000000000000        0x0 build/cdcuser.o
 .bss           0x0000000000000000        0x0 build/cdcuser.o
 .text          0x0000000000000000        0x0 build/serial.o
 .data          0x0000000000000000        0x0 build/serial.o
 .bss           0x0000000000000000        0x0 build/serial.o
 .text.ser_Write
                0x0000000000000000       0x34 build/serial.o
 .text          0x0000000000000000        0x0 build/led/lib_led.o
 .data          0x0000000000000000        0x0 build/led/lib_led.o
 .bss           0x0000000000000000        0x0 build/led/lib_led.o
 .text.LED_deinit
                0x0000000000000000       0x10 build/led/lib_led.o
 .text.LED_upgrade
                0x0000000000000000       0x1c build/led/lib_led.o
 .bss.led_value
                0x0000000000000000        0x1 build/led/lib_led.o
 .text          0x0000000000000000        0x0 build/led/funct_led.o
 .data          0x0000000000000000        0x0 build/led/funct_led.o
 .bss           0x0000000000000000        0x0 build/led/funct_led.o
 .text.LED_On   0x0000000000000000       0x24 build/led/funct_led.o
 .text.LED_Off  0x0000000000000000       0x24 build/led/funct_led.o
 .text.LED_Out  0x0000000000000000       0x2c build/led/funct_led.o
 .rodata.led_mask
                0x0000000000000000       0x20 build/led/funct_led.o
 .text          0x0000000000000000        0x0 build/delay.o
 .data          0x0000000000000000        0x0 build/delay.o
 .bss           0x0000000000000000        0x0 build/delay.o
 .text.DELAY_us
                0x0000000000000000       0x2c build/delay.o
 .text.DELAY_ms
                0x0000000000000000       0x22 build/delay.o
 .text.DELAY_sec
                0x0000000000000000       0x20 build/delay.o
 .text          0x0000000000000000        0x0 build/vcomdemo.o
 .data          0x0000000000000000        0x0 build/vcomdemo.o
 .bss           0x0000000000000000        0x0 build/vcomdemo.o
 .text.VCOM_CheckSerialState
                0x0000000000000000       0x20 build/vcomdemo.o
 .bss.serialState.6445
                0x0000000000000000        0x2 build/vcomdemo.o
 .text          0x0000000000000000        0x0 build/lib/libc/string0.o
 .data          0x0000000000000000        0x0 build/lib/libc/string0.o
 .bss           0x0000000000000000        0x0 build/lib/libc/string0.o
 .text.memchr   0x0000000000000000       0x1e build/lib/libc/string0.o
 .text.strcpy   0x0000000000000000       0x14 build/lib/libc/string0.o
 .text.strncpy  0x0000000000000000       0x1e build/lib/libc/string0.o
 .text.stpcpy   0x0000000000000000       0x12 build/lib/libc/string0.o
 .text.strcat   0x0000000000000000       0x20 build/lib/libc/string0.o
 .text.strstr   0x0000000000000000       0x32 build/lib/libc/string0.o
 .text.strspn   0x0000000000000000       0x20 build/lib/libc/string0.o
 .text.strcspn  0x0000000000000000       0x20 build/lib/libc/string0.o
 .data          0x0000000000000000        0x0 build/startup_LPC17xx.o
 .bss           0x0000000000000000        0x0 build/startup_LPC17xx.o
 .ARM.extab.cs3.reset
                0x0000000000000000        0x0 build/startup_LPC17xx.o

Memory Configuration

Name             Origin             Length             Attributes
rom              0x0000000000000000 0x0000000000080000 xr
ram              0x0000000010000000 0x0000000000008000 xrw
ahbb0            0x000000002007c000 0x0000000000004000 rw
*default*        0x0000000000000000 0xffffffffffffffff

Linker script and memory map

                0x0000000010008000                PROVIDE (__cs3_stack, (__cs3_region_start_ram + __cs3_region_size_ram))
                [!provide]                        PROVIDE (__cs3_stack_size, ((__cs3_region_start_ram + __cs3_region_size_ram) - _end))
                [!provide]                        PROVIDE (__cs3_heap_start, _end)
                [!provide]                        PROVIDE (__cs3_heap_end, (__cs3_region_start_ram + __cs3_region_size_ram))

.text           0x0000000000000000    0x11e44
                0x0000000000000000                __cs3_region_start_rom = .
 *(.cs3.region-head.rom)
                0x0000000000000000                __cs3_interrupt_vector = __cs3_interrupt_vector_cortex_m
 *(.cs3.interrupt_vector)
 .cs3.interrupt_vector
                0x0000000000000000       0xc4 build/startup_LPC17xx.o
                0x0000000000000000                __cs3_interrupt_vector_cortex_m
                0x0000000000000001                ASSERT ((. != __cs3_interrupt_vector_cortex_m), No interrupt vector)
 *(.rom)
 *(.rom.b)
                0x00000000000000c4                __cs3_reset = __cs3_reset_cortex_m
 *(.cs3.reset)
 .cs3.reset     0x00000000000000c4       0x24 build/startup_LPC17xx.o
                0x00000000000000c4                __cs3_reset_cortex_m
                0x00000000000000dc                NMI_Handler
                0x00000000000000de                HardFault_Handler
                0x00000000000000e0                MemManage_Handler
                0x00000000000000e2                BusFault_Handler
                0x00000000000000e4                UsageFault_Handler
                0x0000000000000001                ASSERT ((. != __cs3_reset), No reset code)
 *(.text .text.* .gnu.linkonce.t.*)
 .text.nlr_push_tail
                0x00000000000000e8       0x10 build/py/nlr.o
                0x00000000000000e8                nlr_push_tail
 .text.nlr_pop  0x00000000000000f8       0x10 build/py/nlr.o
                0x00000000000000f8                nlr_pop
 .text.nlr_push
                0x0000000000000108       0x24 build/py/nlrthumb.o
                0x0000000000000108                nlr_push
 .text.nlr_jump
                0x000000000000012c       0x3c build/py/nlrthumb.o
                0x000000000000012c                nlr_jump
 .text.m_malloc
                0x0000000000000168       0x16 build/py/malloc.o
                0x0000000000000168                m_malloc
 .text.m_malloc_maybe
                0x000000000000017e        0x6 build/py/malloc.o
                0x000000000000017e                m_malloc_maybe
 .text.m_malloc0
                0x0000000000000184        0x4 build/py/malloc.o
                0x0000000000000184                m_malloc0
 .text.m_realloc
                0x0000000000000188       0x16 build/py/malloc.o
                0x0000000000000188                m_realloc
 .text.m_realloc_maybe
                0x000000000000019e        0x4 build/py/malloc.o
                0x000000000000019e                m_realloc_maybe
 .text.m_free   0x00000000000001a2        0x4 build/py/malloc.o
                0x00000000000001a2                m_free
 *fill*         0x00000000000001a6        0x2 
 .text.gc_mark_subtree
                0x00000000000001a8       0xb8 build/py/gc.o
 .text.gc_init  0x0000000000000260       0x48 build/py/gc.o
                0x0000000000000260                gc_init
 .text.gc_lock  0x00000000000002a8       0x14 build/py/gc.o
                0x00000000000002a8                gc_lock
 .text.gc_unlock
                0x00000000000002bc       0x14 build/py/gc.o
                0x00000000000002bc                gc_unlock
 .text.gc_is_locked
                0x00000000000002d0       0x14 build/py/gc.o
                0x00000000000002d0                gc_is_locked
 .text.gc_collect_start
                0x00000000000002e4       0x7c build/py/gc.o
                0x00000000000002e4                gc_collect_start
 .text.gc_collect_root
                0x0000000000000360       0x70 build/py/gc.o
                0x0000000000000360                gc_collect_root
 .text.gc_collect_end
                0x00000000000003d0       0xe0 build/py/gc.o
                0x00000000000003d0                gc_collect_end
 .text.gc_info  0x00000000000004b0       0xfc build/py/gc.o
                0x00000000000004b0                gc_info
 .text.gc_alloc
                0x00000000000005ac      0x140 build/py/gc.o
                0x00000000000005ac                gc_alloc
 .text.gc_free  0x00000000000006ec       0x64 build/py/gc.o
                0x00000000000006ec                gc_free
 .text.gc_realloc
                0x0000000000000750      0x1e8 build/py/gc.o
                0x0000000000000750                gc_realloc
 .text.gc_dump_info
                0x0000000000000938       0x40 build/py/gc.o
                0x0000000000000938                gc_dump_info
 .text.find_qstr
                0x0000000000000978       0x1c build/py/qstr.o
 .text.qstr_compute_hash
                0x0000000000000994       0x20 build/py/qstr.o
                0x0000000000000994                qstr_compute_hash
 .text.qstr_init
                0x00000000000009b4       0x18 build/py/qstr.o
                0x00000000000009b4                qstr_init
 .text.qstr_find_strn
                0x00000000000009cc       0x60 build/py/qstr.o
                0x00000000000009cc                qstr_find_strn
 .text.qstr_from_strn
                0x0000000000000a2c      0x124 build/py/qstr.o
                0x0000000000000a2c                qstr_from_strn
 .text.qstr_hash
                0x0000000000000b50        0xa build/py/qstr.o
                0x0000000000000b50                qstr_hash
 .text.qstr_len
                0x0000000000000b5a        0xa build/py/qstr.o
                0x0000000000000b5a                qstr_len
 .text.qstr_str
                0x0000000000000b64        0xa build/py/qstr.o
                0x0000000000000b64                qstr_str
 .text.qstr_data
                0x0000000000000b6e        0xe build/py/qstr.o
                0x0000000000000b6e                qstr_data
 .text.mp_decompress_rom_string
                0x0000000000000b7c       0x74 build/py/qstr.o
                0x0000000000000b7c                mp_decompress_rom_string
 .text.vstr_ensure_extra
                0x0000000000000bf0       0x38 build/py/vstr.o
 .text.vstr_add_strn
                0x0000000000000c28       0x24 build/py/vstr.o
                0x0000000000000c28                vstr_add_strn
 .text.vstr_ins_blank_bytes.constprop.2
                0x0000000000000c4c       0x2e build/py/vstr.o
 .text.vstr_init
                0x0000000000000c7a       0x22 build/py/vstr.o
                0x0000000000000c7a                vstr_init
 .text.vstr_init_len
                0x0000000000000c9c       0x10 build/py/vstr.o
                0x0000000000000c9c                vstr_init_len
 .text.vstr_init_fixed_buf
                0x0000000000000cac       0x12 build/py/vstr.o
                0x0000000000000cac                vstr_init_fixed_buf
 *fill*         0x0000000000000cbe        0x2 
 .text.vstr_init_print
                0x0000000000000cc0       0x18 build/py/vstr.o
                0x0000000000000cc0                vstr_init_print
 .text.vstr_clear
                0x0000000000000cd8       0x16 build/py/vstr.o
                0x0000000000000cd8                vstr_clear
 *fill*         0x0000000000000cee        0x2 
 .text.vstr_extend
                0x0000000000000cf0       0x30 build/py/vstr.o
                0x0000000000000cf0                vstr_extend
 .text.vstr_add_len
                0x0000000000000d20       0x16 build/py/vstr.o
                0x0000000000000d20                vstr_add_len
 .text.vstr_null_terminated_str
                0x0000000000000d36       0x1e build/py/vstr.o
                0x0000000000000d36                vstr_null_terminated_str
 .text.vstr_add_byte
                0x0000000000000d54        0xe build/py/vstr.o
                0x0000000000000d54                vstr_add_byte
 .text.vstr_add_char
                0x0000000000000d62        0x6 build/py/vstr.o
                0x0000000000000d62                vstr_add_char
 .text.vstr_add_str
                0x0000000000000d68       0x1a build/py/vstr.o
                0x0000000000000d68                vstr_add_str
 .text.vstr_ins_byte
                0x0000000000000d82        0xc build/py/vstr.o
                0x0000000000000d82                vstr_ins_byte
 .text.vstr_ins_char
                0x0000000000000d8e        0xc build/py/vstr.o
                0x0000000000000d8e                vstr_ins_char
 .text.vstr_cut_tail_bytes
                0x0000000000000d9a        0xe build/py/vstr.o
                0x0000000000000d9a                vstr_cut_tail_bytes
 .text.vstr_cut_out_bytes
                0x0000000000000da8       0x2e build/py/vstr.o
                0x0000000000000da8                vstr_cut_out_bytes
 .text.plat_print_strn
                0x0000000000000dd6        0x8 build/py/mpprint.o
 .text.mp_print_str
                0x0000000000000dde       0x1e build/py/mpprint.o
                0x0000000000000dde                mp_print_str
 .text.mp_print_strn
                0x0000000000000dfc       0xb8 build/py/mpprint.o
                0x0000000000000dfc                mp_print_strn
 .text.mp_print_int
                0x0000000000000eb4       0xc2 build/py/mpprint.o
 *fill*         0x0000000000000f76        0x2 
 .text.mp_print_mp_int
                0x0000000000000f78      0x238 build/py/mpprint.o
                0x0000000000000f78                mp_print_mp_int
 .text.mp_vprintf
                0x00000000000011b0      0x22c build/py/mpprint.o
                0x00000000000011b0                mp_vprintf
 .text.mp_printf
                0x00000000000013dc       0x1a build/py/mpprint.o
                0x00000000000013dc                mp_printf
 *fill*         0x00000000000013f6        0x2 
 .text.unichar_isspace
                0x00000000000013f8       0x14 build/py/unicode.o
                0x00000000000013f8                unichar_isspace
 .text.unichar_isalpha
                0x000000000000140c       0x14 build/py/unicode.o
                0x000000000000140c                unichar_isalpha
 .text.unichar_isdigit
                0x0000000000001420       0x14 build/py/unicode.o
                0x0000000000001420                unichar_isdigit
 .text.unichar_isxdigit
                0x0000000000001434       0x14 build/py/unicode.o
                0x0000000000001434                unichar_isxdigit
 .text.unichar_isident
                0x0000000000001448       0x24 build/py/unicode.o
                0x0000000000001448                unichar_isident
 .text.unichar_isupper
                0x000000000000146c       0x14 build/py/unicode.o
                0x000000000000146c                unichar_isupper
 .text.unichar_islower
                0x0000000000001480       0x14 build/py/unicode.o
                0x0000000000001480                unichar_islower
 .text.unichar_tolower
                0x0000000000001494       0x10 build/py/unicode.o
                0x0000000000001494                unichar_tolower
 .text.unichar_toupper
                0x00000000000014a4       0x10 build/py/unicode.o
                0x00000000000014a4                unichar_toupper
 .text.unichar_xdigit_value
                0x00000000000014b4        0xe build/py/unicode.o
                0x00000000000014b4                unichar_xdigit_value
 .text.mp_reader_mem_readbyte
                0x00000000000014c2       0x14 build/py/reader.o
 .text.mp_reader_mem_close
                0x00000000000014d6       0x18 build/py/reader.o
 *fill*         0x00000000000014ee        0x2 
 .text.mp_reader_new_mem
                0x00000000000014f0       0x30 build/py/reader.o
                0x00000000000014f0                mp_reader_new_mem
 .text.is_string_or_bytes
                0x0000000000001520       0x50 build/py/lexer.o
 .text.next_char
                0x0000000000001570       0x60 build/py/lexer.o
 .text.skip_whitespace
                0x00000000000015d0       0x60 build/py/lexer.o
 .text.mp_lexer_to_next
                0x0000000000001630      0x524 build/py/lexer.o
                0x0000000000001630                mp_lexer_to_next
 .text.mp_lexer_new
                0x0000000000001b54       0x7c build/py/lexer.o
                0x0000000000001b54                mp_lexer_new
 .text.mp_lexer_new_from_str_len
                0x0000000000001bd0       0x1c build/py/lexer.o
                0x0000000000001bd0                mp_lexer_new_from_str_len
 .text.mp_lexer_free
                0x0000000000001bec       0x26 build/py/lexer.o
                0x0000000000001bec                mp_lexer_free
 .text.pop_result
                0x0000000000001c12        0xe build/py/parse.o
 .text.peek_result
                0x0000000000001c20       0x1a build/py/parse.o
 .text.parser_alloc
                0x0000000000001c3a       0x68 build/py/parse.o
 .text.push_result_node
                0x0000000000001ca2       0x2e build/py/parse.o
 .text.push_rule
                0x0000000000001cd0       0x42 build/py/parse.o
 .text.push_rule_from_arg
                0x0000000000001d12       0x10 build/py/parse.o
 *fill*         0x0000000000001d22        0x2 
 .text.push_result_token.isra.1
                0x0000000000001d24       0xc4 build/py/parse.o
 .text.mp_parse_node_is_const_false
                0x0000000000001de8       0x1c build/py/parse.o
                0x0000000000001de8                mp_parse_node_is_const_false
 .text.mp_parse_node_is_const_true
                0x0000000000001e04       0x1c build/py/parse.o
                0x0000000000001e04                mp_parse_node_is_const_true
 .text.mp_parse_node_get_int_maybe
                0x0000000000001e20       0x44 build/py/parse.o
                0x0000000000001e20                mp_parse_node_get_int_maybe
 .text.push_result_rule
                0x0000000000001e64      0x254 build/py/parse.o
 .text.mp_parse_node_extract_list
                0x00000000000020b8       0x26 build/py/parse.o
                0x00000000000020b8                mp_parse_node_extract_list
 *fill*         0x00000000000020de        0x2 
 .text.mp_parse
                0x00000000000020e0      0x394 build/py/parse.o
                0x00000000000020e0                mp_parse
 .text.mp_parse_tree_clear
                0x0000000000002474       0x12 build/py/parse.o
                0x0000000000002474                mp_parse_tree_clear
 *fill*         0x0000000000002486        0x2 
 .text.scope_new
                0x0000000000002488       0x50 build/py/scope.o
                0x0000000000002488                scope_new
 .text.scope_free
                0x00000000000024d8       0x14 build/py/scope.o
                0x00000000000024d8                scope_free
 .text.scope_find
                0x00000000000024ec       0x20 build/py/scope.o
                0x00000000000024ec                scope_find
 .text.scope_find_or_add_id
                0x000000000000250c       0x42 build/py/scope.o
                0x000000000000250c                scope_find_or_add_id
 .text.scope_find_global
                0x000000000000254e        0xc build/py/scope.o
                0x000000000000254e                scope_find_global
 .text.scope_check_to_close_over
                0x000000000000255a       0x4e build/py/scope.o
                0x000000000000255a                scope_check_to_close_over
 .text.apply_to_single_or_list
                0x00000000000025a8       0x40 build/py/compile.o
 .text.compile_del_stmt
                0x00000000000025e8       0x10 build/py/compile.o
 .text.compile_import_name
                0x00000000000025f8       0x10 build/py/compile.o
 .text.scope_new_and_link
                0x0000000000002608       0x2a build/py/compile.o
 .text.compile_trailer_period
                0x0000000000002632        0xc build/py/compile.o
 *fill*         0x000000000000263e        0x2 
 .text.compile_load_id
                0x0000000000002640       0x1c build/py/compile.o
 .text.compile_store_id
                0x000000000000265c       0x1c build/py/compile.o
 .text.compile_delete_id
                0x0000000000002678       0x1c build/py/compile.o
 .text.compile_const_object
                0x0000000000002694        0x8 build/py/compile.o
 .text.close_over_variables_etc
                0x000000000000269c       0xa4 build/py/compile.o
 .text.compile_funcdef_lambdef
                0x0000000000002740       0x58 build/py/compile.o
 .text.compile_lambdef
                0x0000000000002798       0x2a build/py/compile.o
 .text.compile_funcdef_helper
                0x00000000000027c2       0x2a build/py/compile.o
 .text.compile_funcdef
                0x00000000000027ec       0x18 build/py/compile.o
 .text.compile_increase_except_level
                0x0000000000002804       0x1e build/py/compile.o
 .text.compile_decrease_except_level
                0x0000000000002822        0xc build/py/compile.o
 .text.compile_error_set_line.isra.1
                0x000000000000282e       0x10 build/py/compile.o
 *fill*         0x000000000000283e        0x2 
 .text.compile_syntax_error
                0x0000000000002840       0x28 build/py/compile.o
 .text.compile_star_expr
                0x0000000000002868        0xc build/py/compile.o
 .text.compile_break_cont_stmt
                0x0000000000002874       0x34 build/py/compile.o
 .text.compile_scope_func_lambda_param.isra.6
                0x00000000000028a8       0x9c build/py/compile.o
 .text.compile_scope_lambda_param
                0x0000000000002944        0x8 build/py/compile.o
 .text.compile_scope_func_param
                0x000000000000294c        0x8 build/py/compile.o
 .text.compile_node
                0x0000000000002954       0x94 build/py/compile.o
 .text.c_assign
                0x00000000000029e8      0x190 build/py/compile.o
 .text.c_assign_tuple
                0x0000000000002b78       0xc8 build/py/compile.o
 .text.c_if_cond
                0x0000000000002c40      0x102 build/py/compile.o
 .text.compile_scope_comp_iter
                0x0000000000002d42       0xac build/py/compile.o
 *fill*         0x0000000000002dee        0x2 
 .text.compile_scope
                0x0000000000002df0      0x1a4 build/py/compile.o
 .text.compile_dictorsetmaker_item
                0x0000000000002f94       0x18 build/py/compile.o
 .text.compile_trailer_bracket
                0x0000000000002fac       0x16 build/py/compile.o
 .text.c_tuple  0x0000000000002fc2       0x40 build/py/compile.o
 .text.compile_generic_tuple
                0x0000000000003002        0x8 build/py/compile.o
 .text.compile_while_stmt
                0x000000000000300a       0x8a build/py/compile.o
 .text.compile_yield_stmt
                0x0000000000003094       0x14 build/py/compile.o
 .text.compile_return_stmt
                0x00000000000030a8       0x20 build/py/compile.o
 .text.c_del_stmt
                0x00000000000030c8      0x100 build/py/compile.o
 .text.compile_generic_all_nodes
                0x00000000000031c8       0x3e build/py/compile.o
 .text.compile_power
                0x0000000000003206       0x14 build/py/compile.o
 .text.compile_if_stmt
                0x000000000000321a       0xdc build/py/compile.o
 .text.compile_comprehension
                0x00000000000032f6       0x4c build/py/compile.o
 *fill*         0x0000000000003342        0x2 
 .text.compile_trailer_paren_helper
                0x0000000000003344      0x140 build/py/compile.o
 .text.compile_classdef_helper
                0x0000000000003484       0x50 build/py/compile.o
 .text.compile_classdef
                0x00000000000034d4       0x18 build/py/compile.o
 .text.compile_trailer_paren
                0x00000000000034ec        0xa build/py/compile.o
 .text.compile_atom_bracket
                0x00000000000034f6       0x82 build/py/compile.o
 .text.compile_decorated
                0x0000000000003578       0xdc build/py/compile.o
 .text.compile_funcdef_lambdef_param
                0x0000000000003654       0xa4 build/py/compile.o
 .text.compile_atom_expr_normal
                0x00000000000036f8      0x124 build/py/compile.o
 .text.compile_term
                0x000000000000381c       0x3c build/py/compile.o
 .text.compile_binary_op
                0x0000000000003858       0x3c build/py/compile.o
 .text.compile_expr_stmt
                0x0000000000003894      0x110 build/py/compile.o
 .text.compile_factor_2
                0x00000000000039a4       0x26 build/py/compile.o
 .text.compile_not_test_2
                0x00000000000039ca       0x16 build/py/compile.o
 .text.compile_or_and_test
                0x00000000000039e0       0x56 build/py/compile.o
 .text.compile_comparison
                0x0000000000003a36       0xce build/py/compile.o
 .text.compile_test_if_expr
                0x0000000000003b04       0x54 build/py/compile.o
 .text.compile_for_stmt
                0x0000000000003b58      0x296 build/py/compile.o
 .text.compile_with_stmt_helper
                0x0000000000003dee       0x82 build/py/compile.o
 .text.compile_with_stmt
                0x0000000000003e70       0x22 build/py/compile.o
 *fill*         0x0000000000003e92        0x2 
 .text.compile_try_except
                0x0000000000003e94      0x180 build/py/compile.o
 .text.compile_try_finally
                0x0000000000004014       0x74 build/py/compile.o
 .text.compile_try_stmt
                0x0000000000004088       0x6c build/py/compile.o
 .text.compile_yield_expr
                0x00000000000040f4       0x6c build/py/compile.o
 .text.compile_atom_paren
                0x0000000000004160       0x40 build/py/compile.o
 .text.compile_assert_stmt
                0x00000000000041a0       0x58 build/py/compile.o
 .text.compile_raise_stmt
                0x00000000000041f8       0x3c build/py/compile.o
 .text.compile_global_nonlocal_stmt
                0x0000000000004234       0xb4 build/py/compile.o
 .text.do_import_name.isra.14
                0x00000000000042e8      0x10e build/py/compile.o
 .text.compile_import_from
                0x00000000000043f6      0x11a build/py/compile.o
 .text.compile_dotted_as_name
                0x0000000000004510       0x30 build/py/compile.o
 .text.compile_atom_brace
                0x0000000000004540       0xbc build/py/compile.o
 .text.mp_compile
                0x00000000000045fc      0x28c build/py/compile.o
                0x00000000000045fc                mp_compile
 .text.mp_emit_common_get_id_for_modification
                0x0000000000004888       0x1c build/py/emitcommon.o
                0x0000000000004888                mp_emit_common_get_id_for_modification
 .text.mp_emit_common_id_op
                0x00000000000048a4       0x46 build/py/emitcommon.o
                0x00000000000048a4                mp_emit_common_id_op
 .text.emit_write_code_info_qstr
                0x00000000000048ea       0x22 build/py/emitbc.o
 .text.emit_get_cur_to_write_bytecode
                0x000000000000490c       0x20 build/py/emitbc.o
 .text.emit_write_bytecode_raw_byte
                0x000000000000492c        0xe build/py/emitbc.o
 .text.emit_write_code_info_byte
                0x000000000000493a       0x1e build/py/emitbc.o
 .text.emit_bc_new
                0x0000000000004958        0x6 build/py/emitbc.o
                0x0000000000004958                emit_bc_new
 .text.emit_bc_set_max_num_labels
                0x000000000000495e       0x10 build/py/emitbc.o
                0x000000000000495e                emit_bc_set_max_num_labels
 .text.emit_bc_free
                0x000000000000496e       0x14 build/py/emitbc.o
                0x000000000000496e                emit_bc_free
 .text.mp_emit_bc_start_pass
                0x0000000000004982      0x162 build/py/emitbc.o
                0x0000000000004982                mp_emit_bc_start_pass
 .text.mp_emit_bc_end_pass
                0x0000000000004ae4       0x90 build/py/emitbc.o
                0x0000000000004ae4                mp_emit_bc_end_pass
 .text.mp_emit_bc_last_emit_was_return_value
                0x0000000000004b74        0xa build/py/emitbc.o
                0x0000000000004b74                mp_emit_bc_last_emit_was_return_value
 .text.mp_emit_bc_adjust_stack_size
                0x0000000000004b7e       0x1c build/py/emitbc.o
                0x0000000000004b7e                mp_emit_bc_adjust_stack_size
 .text.emit_write_bytecode_byte
                0x0000000000004b9a       0x12 build/py/emitbc.o
 .text.emit_write_bytecode_byte_uint
                0x0000000000004bac       0x48 build/py/emitbc.o
 .text.emit_write_bytecode_byte_raw_code
                0x0000000000004bf4       0x2e build/py/emitbc.o
 .text.mp_emit_bc_delete_local
                0x0000000000004c22        0xe build/py/emitbc.o
                0x0000000000004c22                mp_emit_bc_delete_local
 .text.emit_bc_call_function_method_helper
                0x0000000000004c30       0x22 build/py/emitbc.o
 .text.emit_write_bytecode_byte_obj.constprop.8
                0x0000000000004c52       0x2a build/py/emitbc.o
 .text.mp_emit_bc_load_local
                0x0000000000004c7c       0x28 build/py/emitbc.o
                0x0000000000004c7c                mp_emit_bc_load_local
 .text.mp_emit_bc_store_local
                0x0000000000004ca4       0x2c build/py/emitbc.o
                0x0000000000004ca4                mp_emit_bc_store_local
 .text.emit_write_bytecode_byte_qstr
                0x0000000000004cd0       0x1a build/py/emitbc.o
 .text.mp_emit_bc_load_global
                0x0000000000004cea        0xc build/py/emitbc.o
                0x0000000000004cea                mp_emit_bc_load_global
 .text.mp_emit_bc_store_global
                0x0000000000004cf6        0xe build/py/emitbc.o
                0x0000000000004cf6                mp_emit_bc_store_global
 .text.mp_emit_bc_delete_global
                0x0000000000004d04        0xc build/py/emitbc.o
                0x0000000000004d04                mp_emit_bc_delete_global
 .text.emit_write_bytecode_byte_signed_label
                0x0000000000004d10       0x34 build/py/emitbc.o
 .text.emit_write_bytecode_byte_unsigned_label
                0x0000000000004d44       0x38 build/py/emitbc.o
 .text.mp_emit_bc_set_source_line
                0x0000000000004d7c        0x2 build/py/emitbc.o
                0x0000000000004d7c                mp_emit_bc_set_source_line
 .text.mp_emit_bc_label_assign
                0x0000000000004d7e       0x1e build/py/emitbc.o
                0x0000000000004d7e                mp_emit_bc_label_assign
 .text.mp_emit_bc_import
                0x0000000000004d9c       0x2e build/py/emitbc.o
                0x0000000000004d9c                mp_emit_bc_import
 *fill*         0x0000000000004dca        0x2 
 .text.mp_emit_bc_load_const_tok
                0x0000000000004dcc       0x1c build/py/emitbc.o
                0x0000000000004dcc                mp_emit_bc_load_const_tok
 .text.mp_emit_bc_load_const_small_int
                0x0000000000004de8       0x8a build/py/emitbc.o
                0x0000000000004de8                mp_emit_bc_load_const_small_int
 .text.mp_emit_bc_load_const_str
                0x0000000000004e72        0xa build/py/emitbc.o
                0x0000000000004e72                mp_emit_bc_load_const_str
 .text.mp_emit_bc_load_const_obj
                0x0000000000004e7c        0x4 build/py/emitbc.o
                0x0000000000004e7c                mp_emit_bc_load_const_obj
 .text.mp_emit_bc_load_null
                0x0000000000004e80        0x8 build/py/emitbc.o
                0x0000000000004e80                mp_emit_bc_load_null
 .text.mp_emit_bc_load_method
                0x0000000000004e88       0x1c build/py/emitbc.o
                0x0000000000004e88                mp_emit_bc_load_method
 .text.mp_emit_bc_load_build_class
                0x0000000000004ea4        0x8 build/py/emitbc.o
                0x0000000000004ea4                mp_emit_bc_load_build_class
 .text.mp_emit_bc_dup_top
                0x0000000000004eac        0x8 build/py/emitbc.o
                0x0000000000004eac                mp_emit_bc_dup_top
 .text.mp_emit_bc_dup_top_two
                0x0000000000004eb4        0x8 build/py/emitbc.o
                0x0000000000004eb4                mp_emit_bc_dup_top_two
 .text.mp_emit_bc_pop_top
                0x0000000000004ebc        0xa build/py/emitbc.o
                0x0000000000004ebc                mp_emit_bc_pop_top
 .text.mp_emit_bc_rot_two
                0x0000000000004ec6        0x8 build/py/emitbc.o
                0x0000000000004ec6                mp_emit_bc_rot_two
 .text.mp_emit_bc_attr
                0x0000000000004ece       0x30 build/py/emitbc.o
                0x0000000000004ece                mp_emit_bc_attr
 .text.mp_emit_bc_rot_three
                0x0000000000004efe        0x8 build/py/emitbc.o
                0x0000000000004efe                mp_emit_bc_rot_three
 .text.mp_emit_bc_subscr
                0x0000000000004f06       0x2c build/py/emitbc.o
                0x0000000000004f06                mp_emit_bc_subscr
 .text.mp_emit_bc_jump
                0x0000000000004f32        0xa build/py/emitbc.o
                0x0000000000004f32                mp_emit_bc_jump
 .text.mp_emit_bc_pop_jump_if
                0x0000000000004f3c       0x12 build/py/emitbc.o
                0x0000000000004f3c                mp_emit_bc_pop_jump_if
 .text.mp_emit_bc_jump_if_or_pop
                0x0000000000004f4e       0x12 build/py/emitbc.o
                0x0000000000004f4e                mp_emit_bc_jump_if_or_pop
 .text.mp_emit_bc_unwind_jump
                0x0000000000004f60       0x64 build/py/emitbc.o
                0x0000000000004f60                mp_emit_bc_unwind_jump
 .text.mp_emit_bc_setup_block
                0x0000000000004fc4       0x18 build/py/emitbc.o
                0x0000000000004fc4                mp_emit_bc_setup_block
 .text.mp_emit_bc_with_cleanup
                0x0000000000004fdc       0x2c build/py/emitbc.o
                0x0000000000004fdc                mp_emit_bc_with_cleanup
 .text.mp_emit_bc_end_finally
                0x0000000000005008        0xa build/py/emitbc.o
                0x0000000000005008                mp_emit_bc_end_finally
 .text.mp_emit_bc_get_iter
                0x0000000000005012       0x10 build/py/emitbc.o
                0x0000000000005012                mp_emit_bc_get_iter
 .text.mp_emit_bc_for_iter
                0x0000000000005022        0xa build/py/emitbc.o
                0x0000000000005022                mp_emit_bc_for_iter
 .text.mp_emit_bc_for_iter_end
                0x000000000000502c        0x8 build/py/emitbc.o
                0x000000000000502c                mp_emit_bc_for_iter_end
 .text.mp_emit_bc_pop_except_jump
                0x0000000000005034        0xa build/py/emitbc.o
                0x0000000000005034                mp_emit_bc_pop_except_jump
 .text.mp_emit_bc_unary_op
                0x000000000000503e        0xc build/py/emitbc.o
                0x000000000000503e                mp_emit_bc_unary_op
 .text.mp_emit_bc_binary_op
                0x000000000000504a       0x3c build/py/emitbc.o
                0x000000000000504a                mp_emit_bc_binary_op
 .text.mp_emit_bc_build
                0x0000000000005086       0x16 build/py/emitbc.o
                0x0000000000005086                mp_emit_bc_build
 .text.mp_emit_bc_store_map
                0x000000000000509c        0xa build/py/emitbc.o
                0x000000000000509c                mp_emit_bc_store_map
 .text.mp_emit_bc_store_comp
                0x00000000000050a6       0x14 build/py/emitbc.o
                0x00000000000050a6                mp_emit_bc_store_comp
 .text.mp_emit_bc_unpack_sequence
                0x00000000000050ba        0xa build/py/emitbc.o
                0x00000000000050ba                mp_emit_bc_unpack_sequence
 .text.mp_emit_bc_unpack_ex
                0x00000000000050c4       0x12 build/py/emitbc.o
                0x00000000000050c4                mp_emit_bc_unpack_ex
 .text.mp_emit_bc_make_function
                0x00000000000050d6       0x20 build/py/emitbc.o
                0x00000000000050d6                mp_emit_bc_make_function
 .text.mp_emit_bc_make_closure
                0x00000000000050f6       0x30 build/py/emitbc.o
                0x00000000000050f6                mp_emit_bc_make_closure
 .text.mp_emit_bc_call_function
                0x0000000000005126       0x16 build/py/emitbc.o
                0x0000000000005126                mp_emit_bc_call_function
 .text.mp_emit_bc_call_method
                0x000000000000513c       0x18 build/py/emitbc.o
                0x000000000000513c                mp_emit_bc_call_method
 .text.mp_emit_bc_return_value
                0x0000000000005154       0x14 build/py/emitbc.o
                0x0000000000005154                mp_emit_bc_return_value
 .text.mp_emit_bc_raise_varargs
                0x0000000000005168        0xc build/py/emitbc.o
                0x0000000000005168                mp_emit_bc_raise_varargs
 .text.mp_emit_bc_yield
                0x0000000000005174       0x1c build/py/emitbc.o
                0x0000000000005174                mp_emit_bc_yield
 .text.mp_emit_bc_start_except_handler
                0x0000000000005190        0x6 build/py/emitbc.o
                0x0000000000005190                mp_emit_bc_start_except_handler
 .text.mp_emit_bc_end_except_handler
                0x0000000000005196        0x8 build/py/emitbc.o
                0x0000000000005196                mp_emit_bc_end_except_handler
 .text.mp_parse_num_base
                0x000000000000519e       0x6c build/py/parsenumbase.o
                0x000000000000519e                mp_parse_num_base
 *fill*         0x000000000000520a        0x2 
 .text.raise_exc
                0x000000000000520c       0x20 build/py/parsenum.o
 .text.mp_parse_num_integer
                0x000000000000522c       0xfc build/py/parsenum.o
                0x000000000000522c                mp_parse_num_integer
 .text.mp_parse_num_decimal
                0x0000000000005328       0x18 build/py/parsenum.o
                0x0000000000005328                mp_parse_num_decimal
 .text.mp_emit_glue_new_raw_code
                0x0000000000005340       0x14 build/py/emitglue.o
                0x0000000000005340                mp_emit_glue_new_raw_code
 .text.mp_emit_glue_assign_bytecode
                0x0000000000005354       0x1a build/py/emitglue.o
                0x0000000000005354                mp_emit_glue_assign_bytecode
 *fill*         0x000000000000536e        0x2 
 .text.mp_make_function_from_raw_code
                0x0000000000005370       0x20 build/py/emitglue.o
                0x0000000000005370                mp_make_function_from_raw_code
 .text.mp_make_closure_from_raw_code
                0x0000000000005390       0x28 build/py/emitglue.o
                0x0000000000005390                mp_make_closure_from_raw_code
 .text.mp_init  0x00000000000053b8       0x3c build/py/runtime.o
                0x00000000000053b8                mp_init
 .text.mp_deinit
                0x00000000000053f4        0x2 build/py/runtime.o
                0x00000000000053f4                mp_deinit
 *fill*         0x00000000000053f6        0x2 
 .text.mp_load_build_class
                0x00000000000053f8        0x8 build/py/runtime.o
                0x00000000000053f8                mp_load_build_class
 .text.mp_store_name
                0x0000000000005400       0x14 build/py/runtime.o
                0x0000000000005400                mp_store_name
 .text.mp_delete_name
                0x0000000000005414       0x14 build/py/runtime.o
                0x0000000000005414                mp_delete_name
 .text.mp_store_global
                0x0000000000005428       0x14 build/py/runtime.o
                0x0000000000005428                mp_store_global
 .text.mp_delete_global
                0x000000000000543c       0x14 build/py/runtime.o
                0x000000000000543c                mp_delete_global
 .text.mp_convert_member_lookup
                0x0000000000005450       0x5c build/py/runtime.o
                0x0000000000005450                mp_convert_member_lookup
 .text.mp_load_method_maybe
                0x00000000000054ac       0x64 build/py/runtime.o
                0x00000000000054ac                mp_load_method_maybe
 .text.mp_load_method_protected
                0x0000000000005510       0x44 build/py/runtime.o
                0x0000000000005510                mp_load_method_protected
 .text.mp_import_name
                0x0000000000005554       0x22 build/py/runtime.o
                0x0000000000005554                mp_import_name
 .text.mp_import_all
                0x0000000000005576       0x3c build/py/runtime.o
                0x0000000000005576                mp_import_all
 .text.mp_raise_msg
                0x00000000000055b2       0x12 build/py/runtime.o
                0x00000000000055b2                mp_raise_msg
 .text.mp_load_global
                0x00000000000055c4       0x40 build/py/runtime.o
                0x00000000000055c4                mp_load_global
 .text.mp_load_name
                0x0000000000005604       0x30 build/py/runtime.o
                0x0000000000005604                mp_load_name
 .text.mp_load_method
                0x0000000000005634       0x20 build/py/runtime.o
                0x0000000000005634                mp_load_method
 .text.mp_load_attr
                0x0000000000005654       0x1a build/py/runtime.o
                0x0000000000005654                mp_load_attr
 *fill*         0x000000000000566e        0x2 
 .text.mp_store_attr
                0x0000000000005670       0x38 build/py/runtime.o
                0x0000000000005670                mp_store_attr
 .text.mp_raise_msg_varg
                0x00000000000056a8       0x14 build/py/runtime.o
                0x00000000000056a8                mp_raise_msg_varg
 .text.mp_import_from
                0x00000000000056bc       0xbc build/py/runtime.o
                0x00000000000056bc                mp_import_from
 .text.m_malloc_fail
                0x0000000000005778       0x28 build/py/runtime.o
                0x0000000000005778                m_malloc_fail
 .text.mp_raise_ValueError
                0x00000000000057a0       0x10 build/py/runtime.o
                0x00000000000057a0                mp_raise_ValueError
 .text.mp_raise_TypeError
                0x00000000000057b0       0x10 build/py/runtime.o
                0x00000000000057b0                mp_raise_TypeError
 .text.mp_unary_op
                0x00000000000057c0       0xf8 build/py/runtime.o
                0x00000000000057c0                mp_unary_op
 .text.mp_call_function_n_kw
                0x00000000000058b8       0x30 build/py/runtime.o
                0x00000000000058b8                mp_call_function_n_kw
 .text.mp_call_function_0
                0x00000000000058e8        0xa build/py/runtime.o
                0x00000000000058e8                mp_call_function_0
 *fill*         0x00000000000058f2        0x2 
 .text.mp_parse_compile_execute
                0x00000000000058f4       0x64 build/py/runtime.o
                0x00000000000058f4                mp_parse_compile_execute
 .text.mp_call_function_1
                0x0000000000005958       0x16 build/py/runtime.o
                0x0000000000005958                mp_call_function_1
 .text.mp_call_method_n_kw
                0x000000000000596e       0x1e build/py/runtime.o
                0x000000000000596e                mp_call_method_n_kw
 .text.mp_make_raise_obj
                0x000000000000598c       0x3c build/py/runtime.o
                0x000000000000598c                mp_make_raise_obj
 .text.mp_resume
                0x00000000000059c8       0xf0 build/py/runtime.o
                0x00000000000059c8                mp_resume
 .text.mp_getiter
                0x0000000000005ab8       0x6c build/py/runtime.o
                0x0000000000005ab8                mp_getiter
 .text.mp_iternext_allow_raise
                0x0000000000005b24       0x38 build/py/runtime.o
                0x0000000000005b24                mp_iternext_allow_raise
 .text.mp_iternext
                0x0000000000005b5c       0x64 build/py/runtime.o
                0x0000000000005b5c                mp_iternext
 .text.mp_call_method_n_kw_var
                0x0000000000005bc0      0x260 build/py/runtime.o
                0x0000000000005bc0                mp_call_method_n_kw_var
 .text.mp_unpack_sequence
                0x0000000000005e20       0x90 build/py/runtime.o
                0x0000000000005e20                mp_unpack_sequence
 .text.mp_unpack_ex
                0x0000000000005eb0      0x100 build/py/runtime.o
                0x0000000000005eb0                mp_unpack_ex
 .text.mp_binary_op
                0x0000000000005fb0      0x26c build/py/runtime.o
                0x0000000000005fb0                mp_binary_op
 .text.mp_raise_OSError
                0x000000000000621c       0x18 build/py/runtime.o
                0x000000000000621c                mp_raise_OSError
 .text.mp_raise_NotImplementedError
                0x0000000000006234       0x10 build/py/runtime.o
                0x0000000000006234                mp_raise_NotImplementedError
 .text.mp_handle_pending
                0x0000000000006244       0x1c build/py/scheduler.o
                0x0000000000006244                mp_handle_pending
 .text.mp_arg_error_terse_mismatch
                0x0000000000006260        0xc build/py/argcheck.o
                0x0000000000006260                mp_arg_error_terse_mismatch
 .text.mp_arg_check_num_sig
                0x000000000000626c       0x26 build/py/argcheck.o
                0x000000000000626c                mp_arg_check_num_sig
 .text.mp_arg_parse_all
                0x0000000000006292       0x92 build/py/argcheck.o
                0x0000000000006292                mp_arg_parse_all
 .text.mp_map_init
                0x0000000000006324       0x2e build/py/map.o
                0x0000000000006324                mp_map_init
 .text.mp_map_init_fixed_table
                0x0000000000006352       0x16 build/py/map.o
                0x0000000000006352                mp_map_init_fixed_table
 .text.mp_map_clear
                0x0000000000006368       0x2c build/py/map.o
                0x0000000000006368                mp_map_clear
 .text.mp_map_lookup
                0x0000000000006394      0x18c build/py/map.o
                0x0000000000006394                mp_map_lookup
 .text.mp_map_rehash
                0x0000000000006520       0x70 build/py/map.o
 .text.mp_identity
                0x0000000000006590        0x2 build/py/obj.o
                0x0000000000006590                mp_identity
 *fill*         0x0000000000006592        0x2 
 .text.mp_obj_get_type
                0x0000000000006594       0x18 build/py/obj.o
                0x0000000000006594                mp_obj_get_type
 .text.mp_obj_get_type_str
                0x00000000000065ac       0x10 build/py/obj.o
                0x00000000000065ac                mp_obj_get_type_str
 .text.mp_obj_print_helper
                0x00000000000065bc       0x28 build/py/obj.o
                0x00000000000065bc                mp_obj_print_helper
 .text.mp_obj_print_exception
                0x00000000000065e4       0x98 build/py/obj.o
                0x00000000000065e4                mp_obj_print_exception
 .text.mp_obj_is_callable
                0x000000000000667c       0x28 build/py/obj.o
                0x000000000000667c                mp_obj_is_callable
 .text.mp_obj_get_int
                0x00000000000066a4       0x3c build/py/obj.o
                0x00000000000066a4                mp_obj_get_int
 .text.mp_obj_get_int_truncated
                0x00000000000066e0       0x1c build/py/obj.o
                0x00000000000066e0                mp_obj_get_int_truncated
 .text.mp_obj_get_int_maybe
                0x00000000000066fc       0x48 build/py/obj.o
                0x00000000000066fc                mp_obj_get_int_maybe
 .text.mp_obj_get_array
                0x0000000000006744       0x38 build/py/obj.o
                0x0000000000006744                mp_obj_get_array
 .text.mp_get_index
                0x000000000000677c       0x64 build/py/obj.o
                0x000000000000677c                mp_get_index
 .text.mp_obj_id
                0x00000000000067e0       0x18 build/py/obj.o
                0x00000000000067e0                mp_obj_id
 .text.mp_obj_len_maybe
                0x00000000000067f8       0x50 build/py/obj.o
                0x00000000000067f8                mp_obj_len_maybe
 .text.mp_obj_is_true
                0x0000000000006848       0x50 build/py/obj.o
                0x0000000000006848                mp_obj_is_true
 .text.mp_obj_equal_not_equal
                0x0000000000006898       0xec build/py/obj.o
                0x0000000000006898                mp_obj_equal_not_equal
 .text.mp_obj_equal
                0x0000000000006984       0x14 build/py/obj.o
                0x0000000000006984                mp_obj_equal
 .text.mp_obj_len
                0x0000000000006998       0x14 build/py/obj.o
                0x0000000000006998                mp_obj_len
 .text.mp_obj_subscr
                0x00000000000069ac       0x38 build/py/obj.o
                0x00000000000069ac                mp_obj_subscr
 .text.mp_identity_getiter
                0x00000000000069e4        0x2 build/py/obj.o
                0x00000000000069e4                mp_identity_getiter
 .text.mp_get_buffer
                0x00000000000069e6       0x1c build/py/obj.o
                0x00000000000069e6                mp_get_buffer
 *fill*         0x0000000000006a02        0x2 
 .text.mp_get_buffer_raise
                0x0000000000006a04       0x14 build/py/obj.o
                0x0000000000006a04                mp_get_buffer_raise
 .text.mp_generic_unary_op
                0x0000000000006a18        0xe build/py/obj.o
                0x0000000000006a18                mp_generic_unary_op
 .text.bool_binary_op
                0x0000000000006a26        0xc build/py/objbool.o
 .text.bool_unary_op
                0x0000000000006a32       0x14 build/py/objbool.o
 *fill*         0x0000000000006a46        0x2 
 .text.bool_print
                0x0000000000006a48       0x14 build/py/objbool.o
 .text.bool_make_new
                0x0000000000006a5c       0x22 build/py/objbool.o
 .text.mp_call_method_self_n_kw
                0x0000000000006a7e       0x6a build/py/objboundmeth.o
                0x0000000000006a7e                mp_call_method_self_n_kw
 .text.bound_meth_call
                0x0000000000006ae8       0x16 build/py/objboundmeth.o
 *fill*         0x0000000000006afe        0x2 
 .text.mp_obj_new_bound_meth
                0x0000000000006b00       0x1c build/py/objboundmeth.o
                0x0000000000006b00                mp_obj_new_bound_meth
 .text.mp_obj_cell_get
                0x0000000000006b1c        0x4 build/py/objcell.o
                0x0000000000006b1c                mp_obj_cell_get
 .text.mp_obj_cell_set
                0x0000000000006b20        0x4 build/py/objcell.o
                0x0000000000006b20                mp_obj_cell_set
 .text.mp_obj_new_cell
                0x0000000000006b24       0x18 build/py/objcell.o
                0x0000000000006b24                mp_obj_new_cell
 .text.closure_call
                0x0000000000006b3c       0x8a build/py/objclosure.o
 *fill*         0x0000000000006bc6        0x2 
 .text.mp_obj_new_closure
                0x0000000000006bc8       0x34 build/py/objclosure.o
                0x0000000000006bc8                mp_obj_new_closure
 .text.dict_view_getiter
                0x0000000000006bfc       0x18 build/py/objdict.o
 .text.dict_getiter
                0x0000000000006c14       0x18 build/py/objdict.o
 .text.mp_ensure_not_fixed
                0x0000000000006c2c       0x10 build/py/objdict.o
 .text.dict_values
                0x0000000000006c3c       0x1c build/py/objdict.o
 .text.dict_clear
                0x0000000000006c58       0x12 build/py/objdict.o
 .text.dict_unary_op
                0x0000000000006c6a       0x28 build/py/objdict.o
 *fill*         0x0000000000006c92        0x2 
 .text.dict_get_helper
                0x0000000000006c94       0x54 build/py/objdict.o
 .text.dict_setdefault
                0x0000000000006ce8        0x6 build/py/objdict.o
 .text.dict_pop
                0x0000000000006cee        0x6 build/py/objdict.o
 .text.dict_get
                0x0000000000006cf4        0x6 build/py/objdict.o
 .text.dict_iter_next
                0x0000000000006cfa       0x28 build/py/objdict.o
 *fill*         0x0000000000006d22        0x2 
 .text.dict_update
                0x0000000000006d24       0xf0 build/py/objdict.o
 .text.dict_view_it_iternext
                0x0000000000006e14       0x36 build/py/objdict.o
 *fill*         0x0000000000006e4a        0x2 
 .text.dict_view_print
                0x0000000000006e4c       0x74 build/py/objdict.o
 .text.dict_print
                0x0000000000006ec0       0x74 build/py/objdict.o
 .text.dict_popitem
                0x0000000000006f34       0x50 build/py/objdict.o
 .text.dict_binary_op
                0x0000000000006f84       0x74 build/py/objdict.o
 .text.dict_view_binary_op
                0x0000000000006ff8       0x1a build/py/objdict.o
 *fill*         0x0000000000007012        0x2 
 .text.dict_items
                0x0000000000007014       0x1c build/py/objdict.o
 .text.dict_keys
                0x0000000000007030       0x1c build/py/objdict.o
 .text.mp_obj_dict_get
                0x000000000000704c       0x24 build/py/objdict.o
                0x000000000000704c                mp_obj_dict_get
 .text.mp_obj_dict_init
                0x0000000000007070       0x10 build/py/objdict.o
                0x0000000000007070                mp_obj_dict_init
 .text.mp_obj_new_dict
                0x0000000000007080       0x16 build/py/objdict.o
                0x0000000000007080                mp_obj_new_dict
 .text.mp_obj_dict_make_new
                0x0000000000007096       0x42 build/py/objdict.o
                0x0000000000007096                mp_obj_dict_make_new
 .text.mp_obj_dict_copy
                0x00000000000070d8       0x4a build/py/objdict.o
                0x00000000000070d8                mp_obj_dict_copy
 .text.mp_obj_dict_len
                0x0000000000007122        0x6 build/py/objdict.o
                0x0000000000007122                mp_obj_dict_len
 .text.mp_obj_dict_store
                0x0000000000007128       0x1c build/py/objdict.o
                0x0000000000007128                mp_obj_dict_store
 .text.mp_obj_dict_delete
                0x0000000000007144       0x18 build/py/objdict.o
                0x0000000000007144                mp_obj_dict_delete
 .text.dict_subscr
                0x000000000000715c       0x38 build/py/objdict.o
 .text.mp_obj_exception_make_new
                0x0000000000007194       0x68 build/py/objexcept.o
                0x0000000000007194                mp_obj_exception_make_new
 .text.exc_add_strn
                0x00000000000071fc       0x54 build/py/objexcept.o
 .text.decompress_error_text_maybe.isra.0
                0x0000000000007250       0x60 build/py/objexcept.o
 .text.mp_obj_exception_print
                0x00000000000072b0       0x7c build/py/objexcept.o
                0x00000000000072b0                mp_obj_exception_print
 .text.mp_obj_exception_get_value
                0x000000000000732c       0x1a build/py/objexcept.o
                0x000000000000732c                mp_obj_exception_get_value
 *fill*         0x0000000000007346        0x2 
 .text.mp_obj_exception_attr
                0x0000000000007348       0x44 build/py/objexcept.o
                0x0000000000007348                mp_obj_exception_attr
 .text.mp_obj_new_exception
                0x000000000000738c        0xa build/py/objexcept.o
                0x000000000000738c                mp_obj_new_exception
 .text.mp_obj_new_exception_arg1
                0x0000000000007396       0x16 build/py/objexcept.o
                0x0000000000007396                mp_obj_new_exception_arg1
 .text.mp_obj_new_exception_msg
                0x00000000000073ac       0x40 build/py/objexcept.o
                0x00000000000073ac                mp_obj_new_exception_msg
 .text.mp_obj_new_exception_msg_vlist
                0x00000000000073ec       0x98 build/py/objexcept.o
                0x00000000000073ec                mp_obj_new_exception_msg_vlist
 .text.mp_obj_is_exception_type
                0x0000000000007484       0x2c build/py/objexcept.o
                0x0000000000007484                mp_obj_is_exception_type
 .text.mp_obj_is_exception_instance
                0x00000000000074b0        0xe build/py/objexcept.o
                0x00000000000074b0                mp_obj_is_exception_instance
 .text.mp_obj_exception_match
                0x00000000000074be       0x20 build/py/objexcept.o
                0x00000000000074be                mp_obj_exception_match
 *fill*         0x00000000000074de        0x2 
 .text.mp_obj_exception_add_traceback
                0x00000000000074e0       0x78 build/py/objexcept.o
                0x00000000000074e0                mp_obj_exception_add_traceback
 .text.mp_obj_exception_get_traceback
                0x0000000000007558       0x2c build/py/objexcept.o
                0x0000000000007558                mp_obj_exception_get_traceback
 .text.fun_builtin_0_call
                0x0000000000007584       0x16 build/py/objfun.o
 .text.fun_builtin_1_call
                0x000000000000759a       0x1c build/py/objfun.o
 .text.fun_builtin_2_call
                0x00000000000075b6       0x1e build/py/objfun.o
 .text.fun_builtin_3_call
                0x00000000000075d4       0x1e build/py/objfun.o
 *fill*         0x00000000000075f2        0x2 
 .text.fun_bc_call
                0x00000000000075f4       0xd0 build/py/objfun.o
 .text.fun_builtin_var_call
                0x00000000000076c4       0x40 build/py/objfun.o
 .text.mp_obj_code_get_name
                0x0000000000007704        0xc build/py/objfun.o
                0x0000000000007704                mp_obj_code_get_name
 .text.mp_obj_fun_get_name
                0x0000000000007710       0x14 build/py/objfun.o
                0x0000000000007710                mp_obj_fun_get_name
 .text.mp_obj_new_fun_bc
                0x0000000000007724       0x5c build/py/objfun.o
                0x0000000000007724                mp_obj_new_fun_bc
 .text.gen_wrap_call
                0x0000000000007780       0x78 build/py/objgenerator.o
 .text.gen_instance_pend_throw
                0x00000000000077f8       0x18 build/py/objgenerator.o
 .text.gen_instance_print
                0x0000000000007810       0x20 build/py/objgenerator.o
 .text.mp_obj_gen_resume
                0x0000000000007830       0xbc build/py/objgenerator.o
                0x0000000000007830                mp_obj_gen_resume
 .text.gen_resume_and_raise
                0x00000000000078ec       0x3c build/py/objgenerator.o
 .text.gen_instance_throw
                0x0000000000007928       0x2c build/py/objgenerator.o
 .text.gen_instance_send
                0x0000000000007954       0x18 build/py/objgenerator.o
 .text.gen_instance_iternext
                0x000000000000796c        0x8 build/py/objgenerator.o
 .text.gen_instance_close
                0x0000000000007974       0x4c build/py/objgenerator.o
 .text.it_iternext
                0x00000000000079c0       0x54 build/py/objgetitemiter.o
 .text.mp_obj_new_getitem_iter
                0x0000000000007a14       0x18 build/py/objgetitemiter.o
                0x0000000000007a14                mp_obj_new_getitem_iter
 .text.mp_obj_int_unary_op
                0x0000000000007a2c        0x4 build/py/objint.o
                0x0000000000007a2c                mp_obj_int_unary_op
 .text.int_to_bytes
                0x0000000000007a30       0x6c build/py/objint.o
 .text.mp_obj_int_make_new
                0x0000000000007a9c       0x88 build/py/objint.o
 .text.mp_int_format_size
                0x0000000000007b24       0x30 build/py/objint.o
                0x0000000000007b24                mp_int_format_size
 .text.mp_obj_int_formatted
                0x0000000000007b54       0xf2 build/py/objint.o
                0x0000000000007b54                mp_obj_int_formatted
 .text.mp_obj_int_print
                0x0000000000007c46       0x3c build/py/objint.o
                0x0000000000007c46                mp_obj_int_print
 .text.mp_obj_int_sign
                0x0000000000007c82       0x18 build/py/objint.o
                0x0000000000007c82                mp_obj_int_sign
 *fill*         0x0000000000007c9a        0x2 
 .text.mp_obj_new_int_from_str_len
                0x0000000000007c9c       0x14 build/py/objint.o
                0x0000000000007c9c                mp_obj_new_int_from_str_len
 .text.mp_obj_new_int_from_ll
                0x0000000000007cb0       0x14 build/py/objint.o
                0x0000000000007cb0                mp_obj_new_int_from_ll
 .text.mp_obj_new_int_from_uint
                0x0000000000007cc4       0x20 build/py/objint.o
                0x0000000000007cc4                mp_obj_new_int_from_uint
 .text.int_from_bytes
                0x0000000000007ce4       0x46 build/py/objint.o
 *fill*         0x0000000000007d2a        0x2 
 .text.mp_obj_new_int
                0x0000000000007d2c       0x24 build/py/objint.o
                0x0000000000007d2c                mp_obj_new_int
 .text.mp_obj_int_get_truncated
                0x0000000000007d50        0x4 build/py/objint.o
                0x0000000000007d50                mp_obj_int_get_truncated
 .text.mp_obj_int_get_checked
                0x0000000000007d54        0x4 build/py/objint.o
                0x0000000000007d54                mp_obj_int_get_checked
 .text.mp_obj_int_binary_op_extra_cases
                0x0000000000007d58       0x5c build/py/objint.o
                0x0000000000007d58                mp_obj_int_binary_op_extra_cases
 .text.mp_obj_int_binary_op
                0x0000000000007db4        0x4 build/py/objint.o
                0x0000000000007db4                mp_obj_int_binary_op
 .text.list_unary_op
                0x0000000000007db8       0x22 build/py/objlist.o
 *fill*         0x0000000000007dda        0x2 
 .text.list_getiter
                0x0000000000007ddc       0x1c build/py/objlist.o
 .text.list_reverse
                0x0000000000007df8       0x34 build/py/objlist.o
 .text.list_it_iternext
                0x0000000000007e2c       0x1c build/py/objlist.o
 .text.mp_obj_list_append
                0x0000000000007e48       0x46 build/py/objlist.o
                0x0000000000007e48                mp_obj_list_append
 .text.list_insert
                0x0000000000007e8e       0x48 build/py/objlist.o
 .text.list_clear
                0x0000000000007ed6       0x22 build/py/objlist.o
 .text.mp_quicksort
                0x0000000000007ef8       0xba build/py/objlist.o
 *fill*         0x0000000000007fb2        0x2 
 .text.mp_obj_list_sort
                0x0000000000007fb4       0x50 build/py/objlist.o
                0x0000000000007fb4                mp_obj_list_sort
 .text.list_index
                0x0000000000008004       0x12 build/py/objlist.o
 *fill*         0x0000000000008016        0x2 
 .text.list_pop
                0x0000000000008018       0x78 build/py/objlist.o
 .text.mp_obj_list_remove
                0x0000000000008090       0x20 build/py/objlist.o
                0x0000000000008090                mp_obj_list_remove
 .text.list_extend_from_iter
                0x00000000000080b0       0x22 build/py/objlist.o
 .text.list_count
                0x00000000000080d2        0xa build/py/objlist.o
 .text.list_print
                0x00000000000080dc       0x4c build/py/objlist.o
 .text.list_extend
                0x0000000000008128       0x70 build/py/objlist.o
 .text.mp_obj_list_init
                0x0000000000008198       0x38 build/py/objlist.o
                0x0000000000008198                mp_obj_list_init
 .text.list_new
                0x00000000000081d0       0x16 build/py/objlist.o
 *fill*         0x00000000000081e6        0x2 
 .text.list_binary_op
                0x00000000000081e8       0xcc build/py/objlist.o
 .text.list_make_new
                0x00000000000082b4       0x2c build/py/objlist.o
 .text.mp_obj_new_list
                0x00000000000082e0       0x24 build/py/objlist.o
                0x00000000000082e0                mp_obj_new_list
 .text.list_copy
                0x0000000000008304        0x8 build/py/objlist.o
 .text.mp_obj_list_get
                0x000000000000830c        0xa build/py/objlist.o
                0x000000000000830c                mp_obj_list_get
 .text.mp_obj_list_set_len
                0x0000000000008316        0x4 build/py/objlist.o
                0x0000000000008316                mp_obj_list_set_len
 .text.mp_obj_list_store
                0x000000000000831a       0x1a build/py/objlist.o
                0x000000000000831a                mp_obj_list_store
 .text.list_subscr
                0x0000000000008334       0x38 build/py/objlist.o
 .text.map_iternext
                0x000000000000836c       0x4a build/py/objmap.o
 *fill*         0x00000000000083b6        0x2 
 .text.map_make_new
                0x00000000000083b8       0x54 build/py/objmap.o
 .text.module_print
                0x000000000000840c       0x34 build/py/objmodule.o
 .text.module_attr
                0x0000000000008440       0x3c build/py/objmodule.o
 .text.mp_obj_new_module
                0x000000000000847c       0x44 build/py/objmodule.o
                0x000000000000847c                mp_obj_new_module
 .text.mp_module_get
                0x00000000000084c0       0x2c build/py/objmodule.o
                0x00000000000084c0                mp_module_get
 .text.object_make_new
                0x00000000000084ec       0x18 build/py/objobject.o
 .text.polymorph_it_iternext
                0x0000000000008504        0x4 build/py/objpolyiter.o
 .text.none_print
                0x0000000000008508        0xc build/py/objnone.o
 .text.range_it_iternext
                0x0000000000008514       0x2c build/py/objrange.o
 .text.range_len
                0x0000000000008540       0x20 build/py/objrange.o
 .text.range_unary_op
                0x0000000000008560       0x28 build/py/objrange.o
 .text.range_getiter
                0x0000000000008588       0x1c build/py/objrange.o
 .text.range_make_new
                0x00000000000085a4       0x60 build/py/objrange.o
 .text.range_print
                0x0000000000008604       0x3c build/py/objrange.o
 .text.range_subscr
                0x0000000000008640       0x2c build/py/objrange.o
 .text.range_attr
                0x000000000000866c       0x26 build/py/objrange.o
 *fill*         0x0000000000008692        0x2 
 .text.singleton_print
                0x0000000000008694        0xc build/py/objsingleton.o
 .text.arg_looks_integer
                0x00000000000086a0       0x28 build/py/objstr.o
 .text.mp_obj_new_str_iterator
                0x00000000000086c8       0x1c build/py/objstr.o
 .text.mp_obj_new_bytes_iterator
                0x00000000000086e4       0x1c build/py/objstr.o
 .text.bytes_it_iternext
                0x0000000000008700       0x3a build/py/objstr.o
 *fill*         0x000000000000873a        0x2 
 .text.terse_str_format_value_error
                0x000000000000873c        0xc build/py/objstr.o
 .text.str_uni_istype
                0x0000000000008748       0x84 build/py/objstr.o
 .text.str_isspace
                0x00000000000087cc        0xc build/py/objstr.o
 .text.str_isalpha
                0x00000000000087d8        0xc build/py/objstr.o
 .text.str_isdigit
                0x00000000000087e4        0xc build/py/objstr.o
 .text.str_isupper
                0x00000000000087f0        0xc build/py/objstr.o
 .text.str_islower
                0x00000000000087fc        0xc build/py/objstr.o
 .text.str_to_int
                0x0000000000008808       0x30 build/py/objstr.o
 .text.mp_obj_str_get_buffer
                0x0000000000008838       0x34 build/py/objstr.o
                0x0000000000008838                mp_obj_str_get_buffer
 .text.unlikely.bad_implicit_conversion.isra.2
                0x000000000000886c        0xc build/py/objstr.o
 .text.mp_str_print_quoted
                0x0000000000008878       0xc8 build/py/objstr.o
                0x0000000000008878                mp_str_print_quoted
 .text.str_print
                0x0000000000008940       0x6c build/py/objstr.o
 .text.find_subbytes
                0x00000000000089ac       0x42 build/py/objstr.o
                0x00000000000089ac                find_subbytes
 *fill*         0x00000000000089ee        0x2 
 .text.str_finder
                0x00000000000089f0       0xd4 build/py/objstr.o
 .text.str_find
                0x0000000000008ac4        0x8 build/py/objstr.o
 .text.str_rfind
                0x0000000000008acc        0xa build/py/objstr.o
 .text.str_index
                0x0000000000008ad6        0x8 build/py/objstr.o
 .text.str_rindex
                0x0000000000008ade        0xa build/py/objstr.o
 .text.mp_obj_new_str_copy
                0x0000000000008ae8       0x38 build/py/objstr.o
                0x0000000000008ae8                mp_obj_new_str_copy
 .text.mp_obj_new_str_via_qstr
                0x0000000000008b20        0xe build/py/objstr.o
                0x0000000000008b20                mp_obj_new_str_via_qstr
 .text.str_it_iternext
                0x0000000000008b2e       0x3c build/py/objstr.o
 *fill*         0x0000000000008b6a        0x2 
 .text.bytes_subscr
                0x0000000000008b6c       0x5c build/py/objstr.o
 .text.mp_obj_new_str_from_vstr
                0x0000000000008bc8       0x6c build/py/objstr.o
                0x0000000000008bc8                mp_obj_new_str_from_vstr
 .text.mp_obj_str_binary_op
                0x0000000000008c34      0x158 build/py/objstr.o
                0x0000000000008c34                mp_obj_str_binary_op
 .text.str_join
                0x0000000000008d8c      0x10c build/py/objstr.o
 .text.str_replace
                0x0000000000008e98      0x160 build/py/objstr.o
 .text.str_caseconv
                0x0000000000008ff8       0x58 build/py/objstr.o
 .text.str_lower
                0x0000000000009050        0xc build/py/objstr.o
 .text.str_upper
                0x000000000000905c        0xc build/py/objstr.o
 .text.mp_obj_new_str
                0x0000000000009068       0x28 build/py/objstr.o
                0x0000000000009068                mp_obj_new_str
 .text.mp_obj_str_make_new
                0x0000000000009090       0xc4 build/py/objstr.o
                0x0000000000009090                mp_obj_str_make_new
 .text.mp_obj_new_bytes
                0x0000000000009154       0x10 build/py/objstr.o
                0x0000000000009154                mp_obj_new_bytes
 .text.bytes_make_new
                0x0000000000009164      0x128 build/py/objstr.o
 .text.mp_obj_new_str_of_type
                0x000000000000928c       0x18 build/py/objstr.o
                0x000000000000928c                mp_obj_new_str_of_type
 .text.str_uni_strip
                0x00000000000092a4      0x118 build/py/objstr.o
 .text.str_strip
                0x00000000000093bc        0xa build/py/objstr.o
 .text.str_lstrip
                0x00000000000093c6        0xa build/py/objstr.o
 .text.str_rstrip
                0x00000000000093d0        0xa build/py/objstr.o
 .text.mp_obj_str_equal
                0x00000000000093da       0x90 build/py/objstr.o
                0x00000000000093da                mp_obj_str_equal
 *fill*         0x000000000000946a        0x2 
 .text.mp_obj_str_get_qstr
                0x000000000000946c       0x30 build/py/objstr.o
                0x000000000000946c                mp_obj_str_get_qstr
 .text.mp_obj_str_get_str
                0x000000000000949c       0x34 build/py/objstr.o
                0x000000000000949c                mp_obj_str_get_str
 .text.mp_obj_str_get_data
                0x00000000000094d0       0x3c build/py/objstr.o
                0x00000000000094d0                mp_obj_str_get_data
 .text.mp_obj_str_split
                0x000000000000950c      0x144 build/py/objstr.o
                0x000000000000950c                mp_obj_str_split
 .text.str_rsplit
                0x0000000000009650      0x10c build/py/objstr.o
 .text.str_startswith
                0x000000000000975c       0x72 build/py/objstr.o
 *fill*         0x00000000000097ce        0x2 
 .text.str_endswith
                0x00000000000097d0       0x5c build/py/objstr.o
 .text.mp_obj_str_format_helper
                0x000000000000982c      0x484 build/py/objstr.o
 .text.mp_obj_str_format
                0x0000000000009cb0       0x4c build/py/objstr.o
                0x0000000000009cb0                mp_obj_str_format
 .text.mp_obj_str_intern_checked
                0x0000000000009cfc       0x14 build/py/objstr.o
                0x0000000000009cfc                mp_obj_str_intern_checked
 .text.tuple_it_iternext
                0x0000000000009d10       0x1c build/py/objtuple.o
 .text.mp_obj_tuple_getiter
                0x0000000000009d2c       0x1c build/py/objtuple.o
                0x0000000000009d2c                mp_obj_tuple_getiter
 .text.mp_obj_tuple_print
                0x0000000000009d48       0x60 build/py/objtuple.o
                0x0000000000009d48                mp_obj_tuple_print
 .text.tuple_index
                0x0000000000009da8       0x14 build/py/objtuple.o
 .text.tuple_count
                0x0000000000009dbc        0xc build/py/objtuple.o
 .text.mp_obj_tuple_unary_op
                0x0000000000009dc8       0x54 build/py/objtuple.o
                0x0000000000009dc8                mp_obj_tuple_unary_op
 .text.mp_obj_tuple_subscr
                0x0000000000009e1c       0x1e build/py/objtuple.o
                0x0000000000009e1c                mp_obj_tuple_subscr
 *fill*         0x0000000000009e3a        0x2 
 .text.mp_obj_new_tuple
                0x0000000000009e3c       0x3c build/py/objtuple.o
                0x0000000000009e3c                mp_obj_new_tuple
 .text.mp_obj_tuple_binary_op
                0x0000000000009e78       0xf8 build/py/objtuple.o
                0x0000000000009e78                mp_obj_tuple_binary_op
 .text.mp_obj_tuple_make_new
                0x0000000000009f70       0x7c build/py/objtuple.o
 .text.mp_obj_tuple_get
                0x0000000000009fec        0xa build/py/objtuple.o
                0x0000000000009fec                mp_obj_tuple_get
 .text.mp_obj_tuple_del
                0x0000000000009ff6        0x4 build/py/objtuple.o
                0x0000000000009ff6                mp_obj_tuple_del
 *fill*         0x0000000000009ffa        0x2 
 .text.instance_count_native_bases
                0x0000000000009ffc       0x58 build/py/objtype.o
 .text.native_base_init_wrapper
                0x000000000000a054       0x32 build/py/objtype.o
 *fill*         0x000000000000a086        0x2 
 .text.type_call
                0x000000000000a088       0x18 build/py/objtype.o
 .text.mp_obj_class_lookup
                0x000000000000a0a0       0xec build/py/objtype.o
 .text.mp_obj_instance_make_new
                0x000000000000a18c      0x150 build/py/objtype.o
                0x000000000000a18c                mp_obj_instance_make_new
 .text.super_attr
                0x000000000000a2dc       0xa0 build/py/objtype.o
 .text.mp_obj_instance_attr
                0x000000000000a37c       0x8c build/py/objtype.o
 .text.static_class_method_make_new
                0x000000000000a408       0x20 build/py/objtype.o
 .text.super_make_new
                0x000000000000a428       0x3c build/py/objtype.o
 .text.type_print
                0x000000000000a464        0xc build/py/objtype.o
 .text.instance_subscr
                0x000000000000a470       0x76 build/py/objtype.o
 *fill*         0x000000000000a4e6        0x2 
 .text.instance_binary_op
                0x000000000000a4e8       0x6c build/py/objtype.o
 .text.instance_unary_op
                0x000000000000a554       0xa0 build/py/objtype.o
 .text.super_print
                0x000000000000a5f4       0x40 build/py/objtype.o
 .text.instance_print
                0x000000000000a634       0xa8 build/py/objtype.o
 .text.mp_obj_instance_getiter
                0x000000000000a6dc       0x5a build/py/objtype.o
                0x000000000000a6dc                mp_obj_instance_getiter
 .text.type_attr
                0x000000000000a736       0x5c build/py/objtype.o
 .text.instance_get_buffer
                0x000000000000a792       0x48 build/py/objtype.o
 *fill*         0x000000000000a7da        0x2 
 .text.mp_obj_instance_call
                0x000000000000a7dc       0x5c build/py/objtype.o
                0x000000000000a7dc                mp_obj_instance_call
 .text.mp_obj_instance_is_callable
                0x000000000000a838       0x32 build/py/objtype.o
                0x000000000000a838                mp_obj_instance_is_callable
 *fill*         0x000000000000a86a        0x2 
 .text.mp_obj_new_type
                0x000000000000a86c      0x12c build/py/objtype.o
                0x000000000000a86c                mp_obj_new_type
 .text.type_make_new
                0x000000000000a998       0x44 build/py/objtype.o
 .text.mp_load_super_method
                0x000000000000a9dc       0x24 build/py/objtype.o
                0x000000000000a9dc                mp_load_super_method
 .text.mp_obj_is_subclass_fast
                0x000000000000aa00       0x6c build/py/objtype.o
                0x000000000000aa00                mp_obj_is_subclass_fast
 .text.mp_obj_is_subclass
                0x000000000000aa6c       0x74 build/py/objtype.o
 .text.mp_builtin_issubclass
                0x000000000000aae0       0x24 build/py/objtype.o
 .text.mp_builtin_isinstance
                0x000000000000ab04       0x12 build/py/objtype.o
 .text.mp_obj_cast_to_native_base
                0x000000000000ab16       0x20 build/py/objtype.o
                0x000000000000ab16                mp_obj_cast_to_native_base
 .text.zip_iternext
                0x000000000000ab36       0x48 build/py/objzip.o
 *fill*         0x000000000000ab7e        0x2 
 .text.zip_make_new
                0x000000000000ab80       0x48 build/py/objzip.o
 .text.op_getitem
                0x000000000000abc8       0x18 build/py/opmethods.o
 .text.op_setitem
                0x000000000000abe0       0x1a build/py/opmethods.o
 .text.op_delitem
                0x000000000000abfa       0x18 build/py/opmethods.o
 .text.mp_seq_multiply
                0x000000000000ac12       0x28 build/py/sequence.o
                0x000000000000ac12                mp_seq_multiply
 .text.mp_seq_cmp_bytes
                0x000000000000ac3a       0x6a build/py/sequence.o
                0x000000000000ac3a                mp_seq_cmp_bytes
 .text.mp_seq_cmp_objs
                0x000000000000aca4       0x92 build/py/sequence.o
                0x000000000000aca4                mp_seq_cmp_objs
 *fill*         0x000000000000ad36        0x2 
 .text.mp_seq_index_obj
                0x000000000000ad38       0x68 build/py/sequence.o
                0x000000000000ad38                mp_seq_index_obj
 .text.mp_seq_count_obj
                0x000000000000ada0       0x2e build/py/sequence.o
                0x000000000000ada0                mp_seq_count_obj
 .text.mp_binary_set_int
                0x000000000000adce       0x2e build/py/binary.o
                0x000000000000adce                mp_binary_set_int
 .text.mp_import_stat_any
                0x000000000000adfc       0x16 build/py/builtinimport.o
 *fill*         0x000000000000ae12        0x2 
 .text.do_load  0x000000000000ae14       0x78 build/py/builtinimport.o
 .text.stat_dir_or_file
                0x000000000000ae8c       0x30 build/py/builtinimport.o
 .text.mp_builtin___import__
                0x000000000000aebc      0x27c build/py/builtinimport.o
                0x000000000000aebc                mp_builtin___import__
 .text.mp_obj_is_package
                0x000000000000b138       0x18 build/py/builtinimport.o
                0x000000000000b138                mp_obj_is_package
 .text.eval_exec_helper
                0x000000000000b150       0x74 build/py/builtinevex.o
 .text.mp_builtin_eval
                0x000000000000b1c4        0x6 build/py/builtinevex.o
 .text.mp_builtin_exec
                0x000000000000b1ca        0x6 build/py/builtinevex.o
 .text.mp_builtin_globals
                0x000000000000b1d0        0xc build/py/modbuiltins.o
 .text.mp_builtin_locals
                0x000000000000b1dc        0xc build/py/modbuiltins.o
 .text.mp_builtin___build_class__
                0x000000000000b1e8       0x78 build/py/modbuiltins.o
 .text.mp_builtin_abs
                0x000000000000b260        0x8 build/py/modbuiltins.o
 .text.mp_builtin_hash
                0x000000000000b268        0x8 build/py/modbuiltins.o
 .text.mp_builtin_iter
                0x000000000000b270        0x6 build/py/modbuiltins.o
 .text.mp_builtin_all
                0x000000000000b276       0x24 build/py/modbuiltins.o
 .text.mp_builtin_any
                0x000000000000b29a       0x24 build/py/modbuiltins.o
 .text.mp_builtin_bin
                0x000000000000b2be       0x1a build/py/modbuiltins.o
 .text.mp_builtin_hex
                0x000000000000b2d8       0x1a build/py/modbuiltins.o
 .text.mp_builtin_oct
                0x000000000000b2f2       0x1a build/py/modbuiltins.o
 .text.mp_builtin_callable
                0x000000000000b30c       0x10 build/py/modbuiltins.o
 .text.mp_builtin_chr
                0x000000000000b31c       0x28 build/py/modbuiltins.o
 .text.mp_builtin_divmod
                0x000000000000b344        0xa build/py/modbuiltins.o
 .text.mp_builtin_sum
                0x000000000000b34e       0x34 build/py/modbuiltins.o
 *fill*         0x000000000000b382        0x2 
 .text.mp_builtin_ord
                0x000000000000b384       0x28 build/py/modbuiltins.o
 .text.mp_builtin_pow
                0x000000000000b3ac       0x1c build/py/modbuiltins.o
 .text.mp_builtin_print
                0x000000000000b3c8       0x7c build/py/modbuiltins.o
 .text.mp_builtin___repl_print__
                0x000000000000b444       0x24 build/py/modbuiltins.o
 .text.mp_builtin_repr
                0x000000000000b468       0x2c build/py/modbuiltins.o
 .text.mp_builtin_round
                0x000000000000b494       0x34 build/py/modbuiltins.o
 .text.mp_builtin_sorted
                0x000000000000b4c8       0x38 build/py/modbuiltins.o
 .text.mp_builtin_hasattr
                0x000000000000b500       0x24 build/py/modbuiltins.o
 .text.mp_builtin_getattr
                0x000000000000b524       0x40 build/py/modbuiltins.o
 .text.mp_builtin_setattr
                0x000000000000b564       0x1a build/py/modbuiltins.o
 *fill*         0x000000000000b57e        0x2 
 .text.mp_builtin_dir
                0x000000000000b580       0x6c build/py/modbuiltins.o
 .text.mp_builtin_next
                0x000000000000b5ec       0x18 build/py/modbuiltins.o
 .text.mp_micropython_heap_unlock
                0x000000000000b604       0x18 build/py/modmicropython.o
 .text.mp_micropython_heap_lock
                0x000000000000b61c        0xa build/py/modmicropython.o
 *fill*         0x000000000000b626        0x2 
 .text.mp_micropython_opt_level
                0x000000000000b628       0x24 build/py/modmicropython.o
 .text.mp_execute_bytecode
                0x000000000000b64c      0xdc8 build/py/vm.o
                0x000000000000b64c                mp_execute_bytecode
 .text.mp_setup_code_state
                0x000000000000c414      0x314 build/py/bc.o
                0x000000000000c414                mp_setup_code_state
 .text.str_startswith_word
                0x000000000000c728       0x38 build/py/repl.o
 .text.mp_repl_continue_with_input
                0x000000000000c760      0x15c build/py/repl.o
                0x000000000000c760                mp_repl_continue_with_input
 .text.mp_repl_autocomplete
                0x000000000000c8bc      0x1f4 build/py/repl.o
                0x000000000000c8bc                mp_repl_autocomplete
 .text.mp_small_int_mul_overflow
                0x000000000000cab0       0x46 build/py/smallint.o
                0x000000000000cab0                mp_small_int_mul_overflow
 .text.mp_small_int_modulo
                0x000000000000caf6       0x1c build/py/smallint.o
                0x000000000000caf6                mp_small_int_modulo
 .text.mp_small_int_floor_divide
                0x000000000000cb12       0x1c build/py/smallint.o
                0x000000000000cb12                mp_small_int_floor_divide
 *fill*         0x000000000000cb2e        0x2 
 .text.mp_frozen_stat
                0x000000000000cb30       0x44 build/py/frozenmod.o
                0x000000000000cb30                mp_frozen_stat
 .text.mp_find_frozen_module
                0x000000000000cb74       0x58 build/py/frozenmod.o
                0x000000000000cb74                mp_find_frozen_module
 .text.mp_builtin_open
                0x000000000000cbcc        0x4 build/main.o
                0x000000000000cbcc                mp_builtin_open
 .text.startup.main
                0x000000000000cbd0       0x5c build/main.o
                0x000000000000cbd0                main
 .text.gc_collect
                0x000000000000cc2c       0x28 build/main.o
                0x000000000000cc2c                gc_collect
 .text.mp_lexer_new_from_file
                0x000000000000cc54        0x8 build/main.o
                0x000000000000cc54                mp_lexer_new_from_file
 .text.mp_import_stat
                0x000000000000cc5c        0x4 build/main.o
                0x000000000000cc5c                mp_import_stat
 .text.nlr_jump_fail
                0x000000000000cc60        0x2 build/main.o
                0x000000000000cc60                nlr_jump_fail
 .text.mp_hal_stdout_tx_strn
                0x000000000000cc62        0xe build/mhalport.o
                0x000000000000cc62                mp_hal_stdout_tx_strn
 .text.mp_hal_stdin_rx_chr
                0x000000000000cc70       0x34 build/mhalport.o
                0x000000000000cc70                mp_hal_stdin_rx_chr
 .text.strn_print_strn
                0x000000000000cca4       0x22 build/lib/utils/printf.o
 *fill*         0x000000000000ccc6        0x2 
 .text.vsnprintf
                0x000000000000ccc8       0x34 build/lib/utils/printf.o
                0x000000000000ccc8                __GI_vsnprintf
                0x000000000000ccc8                vsnprintf
 .text.snprintf
                0x000000000000ccfc       0x1a build/lib/utils/printf.o
                0x000000000000ccfc                snprintf
 *fill*         0x000000000000cd16        0x2 
 .text.mp_hal_stdout_tx_strn_cooked
                0x000000000000cd18       0x30 build/lib/utils/stdout_helpers.o
                0x000000000000cd18                mp_hal_stdout_tx_strn_cooked
 .text.mp_hal_stdout_tx_str
                0x000000000000cd48       0x14 build/lib/utils/stdout_helpers.o
                0x000000000000cd48                mp_hal_stdout_tx_str
 .text.parse_compile_execute
                0x000000000000cd5c       0xf4 build/lib/utils/pyexec.o
 .text.pyexec_friendly_repl
                0x000000000000ce50      0x128 build/lib/utils/pyexec.o
                0x000000000000ce50                pyexec_friendly_repl
 .text.readline_auto_indent
                0x000000000000cf78       0x94 build/lib/mp-readline/readline.o
 .text.mp_hal_move_cursor_back
                0x000000000000d00c       0x3c build/lib/mp-readline/readline.o
 .text.readline_init
                0x000000000000d048       0x2c build/lib/mp-readline/readline.o
                0x000000000000d048                readline_init
 .text.readline_push_history
                0x000000000000d074       0x4c build/lib/mp-readline/readline.o
                0x000000000000d074                readline_push_history
 .text.readline_process_char
                0x000000000000d0c0      0x2f4 build/lib/mp-readline/readline.o
                0x000000000000d0c0                readline_process_char
 .text.readline
                0x000000000000d3b4       0x14 build/lib/mp-readline/readline.o
                0x000000000000d3b4                readline
 .text.SystemInit
                0x000000000000d3c8       0xd4 build/system_LPC17xx.o
                0x000000000000d3c8                SystemInit
 .text.USB_ResetCore
                0x000000000000d49c       0x38 build/usbcore.o
                0x000000000000d49c                USB_ResetCore
 .text.USB_SetupStage
                0x000000000000d4d4        0xc build/usbcore.o
                0x000000000000d4d4                USB_SetupStage
 .text.USB_DataInStage
                0x000000000000d4e0       0x28 build/usbcore.o
                0x000000000000d4e0                USB_DataInStage
 .text.USB_DataOutStage
                0x000000000000d508       0x20 build/usbcore.o
                0x000000000000d508                USB_DataOutStage
 .text.USB_StatusInStage
                0x000000000000d528        0xa build/usbcore.o
                0x000000000000d528                USB_StatusInStage
 *fill*         0x000000000000d532        0x2 
 .text.USB_StatusOutStage
                0x000000000000d534        0xc build/usbcore.o
                0x000000000000d534                USB_StatusOutStage
 .text.USB_ReqGetStatus
                0x000000000000d540       0x98 build/usbcore.o
                0x000000000000d540                USB_ReqGetStatus
 .text.USB_ReqSetClrFeature
                0x000000000000d5d8       0xb8 build/usbcore.o
                0x000000000000d5d8                USB_ReqSetClrFeature
 .text.USB_ReqSetAddress
                0x000000000000d690       0x24 build/usbcore.o
                0x000000000000d690                USB_ReqSetAddress
 .text.USB_ReqGetDescriptor
                0x000000000000d6b4       0x88 build/usbcore.o
                0x000000000000d6b4                USB_ReqGetDescriptor
 .text.USB_ReqGetConfiguration
                0x000000000000d73c       0x24 build/usbcore.o
                0x000000000000d73c                USB_ReqGetConfiguration
 .text.USB_ReqSetConfiguration
                0x000000000000d760      0x188 build/usbcore.o
                0x000000000000d760                USB_ReqSetConfiguration
 .text.USB_ReqGetInterface
                0x000000000000d8e8       0x40 build/usbcore.o
                0x000000000000d8e8                USB_ReqGetInterface
 .text.USB_ReqSetInterface
                0x000000000000d928      0x128 build/usbcore.o
                0x000000000000d928                USB_ReqSetInterface
 .text.USB_EndPoint0
                0x000000000000da50      0x210 build/usbcore.o
                0x000000000000da50                USB_EndPoint0
 .text.EPAdr    0x000000000000dc60       0x10 build/usbhw.o
                0x000000000000dc60                EPAdr
 .text.WrCmd    0x000000000000dc70       0x1c build/usbhw.o
                0x000000000000dc70                WrCmd
 .text.WrCmdDat
                0x000000000000dc8c       0x30 build/usbhw.o
                0x000000000000dc8c                WrCmdDat
 .text.WrCmdEP  0x000000000000dcbc       0x3c build/usbhw.o
                0x000000000000dcbc                WrCmdEP
 .text.RdCmdDat
                0x000000000000dcf8       0x20 build/usbhw.o
                0x000000000000dcf8                RdCmdDat
 .text.USB_Connect
                0x000000000000dd18       0x18 build/usbhw.o
                0x000000000000dd18                USB_Connect
 .text.USB_Reset
                0x000000000000dd30       0x3c build/usbhw.o
                0x000000000000dd30                USB_Reset
 .text.USB_WakeUpCfg
                0x000000000000dd6c        0x2 build/usbhw.o
                0x000000000000dd6c                USB_WakeUpCfg
 *fill*         0x000000000000dd6e        0x2 
 .text.USB_SetAddress
                0x000000000000dd70       0x28 build/usbhw.o
                0x000000000000dd70                USB_SetAddress
 .text.USB_Init
                0x000000000000dd98       0x84 build/usbhw.o
                0x000000000000dd98                USB_Init
 .text.USB_Configure
                0x000000000000de1c       0x38 build/usbhw.o
                0x000000000000de1c                USB_Configure
 .text.USB_ConfigEP
                0x000000000000de54       0x3c build/usbhw.o
                0x000000000000de54                USB_ConfigEP
 .text.USB_DirCtrlEP
                0x000000000000de90        0x2 build/usbhw.o
                0x000000000000de90                USB_DirCtrlEP
 *fill*         0x000000000000de92        0x2 
 .text.USB_DisableEP
                0x000000000000de94       0x20 build/usbhw.o
                0x000000000000de94                USB_DisableEP
 .text.USB_SetStallEP
                0x000000000000deb4       0x20 build/usbhw.o
                0x000000000000deb4                USB_SetStallEP
 .text.USB_ClrStallEP
                0x000000000000ded4       0x1c build/usbhw.o
                0x000000000000ded4                USB_ClrStallEP
 .text.USB_ResetEP
                0x000000000000def0        0x4 build/usbhw.o
                0x000000000000def0                USB_ResetEP
 .text.USB_EnableEP
                0x000000000000def4        0x4 build/usbhw.o
                0x000000000000def4                USB_EnableEP
 .text.USB_ReadEP
                0x000000000000def8       0x58 build/usbhw.o
                0x000000000000def8                USB_ReadEP
 .text.USB_WriteEP
                0x000000000000df50       0x48 build/usbhw.o
                0x000000000000df50                USB_WriteEP
 .text.USB_IRQHandler
                0x000000000000df98       0xb4 build/usbhw.o
                0x000000000000df98                USB_IRQHandler
 .text.USB_EndPoint2
                0x000000000000e04c       0x12 build/usbuser.o
                0x000000000000e04c                USB_EndPoint2
 *fill*         0x000000000000e05e        0x2 
 .text.USB_EndPoint1
                0x000000000000e060       0x24 build/usbuser.o
                0x000000000000e060                USB_EndPoint1
 .text.USB_Reset_Event
                0x000000000000e084        0x4 build/usbuser.o
                0x000000000000e084                USB_Reset_Event
 .text.USB_Configure_Event
                0x000000000000e088        0x2 build/usbuser.o
                0x000000000000e088                USB_Configure_Event
 *fill*         0x000000000000e08a        0x2 
 .text.CDC_RdOutBuf
                0x000000000000e08c       0x28 build/cdcuser.o
                0x000000000000e08c                CDC_RdOutBuf
 .text.CDC_WrOutBuf
                0x000000000000e0b4       0x28 build/cdcuser.o
                0x000000000000e0b4                CDC_WrOutBuf
 .text.CDC_OutBufAvailChar
                0x000000000000e0dc       0x18 build/cdcuser.o
                0x000000000000e0dc                CDC_OutBufAvailChar
 .text.CDC_SendEncapsulatedCommand
                0x000000000000e0f4        0x4 build/cdcuser.o
                0x000000000000e0f4                CDC_SendEncapsulatedCommand
 .text.CDC_GetEncapsulatedResponse
                0x000000000000e0f8        0x4 build/cdcuser.o
                0x000000000000e0f8                CDC_GetEncapsulatedResponse
 .text.CDC_SetCommFeature
                0x000000000000e0fc        0x4 build/cdcuser.o
                0x000000000000e0fc                CDC_SetCommFeature
 .text.CDC_GetCommFeature
                0x000000000000e100        0x4 build/cdcuser.o
                0x000000000000e100                CDC_GetCommFeature
 .text.CDC_ClearCommFeature
                0x000000000000e104        0x4 build/cdcuser.o
                0x000000000000e104                CDC_ClearCommFeature
 .text.CDC_SetLineCoding
                0x000000000000e108       0x3c build/cdcuser.o
                0x000000000000e108                CDC_SetLineCoding
 .text.CDC_GetLineCoding
                0x000000000000e144       0x2c build/cdcuser.o
                0x000000000000e144                CDC_GetLineCoding
 .text.CDC_SetControlLineState
                0x000000000000e170        0x4 build/cdcuser.o
                0x000000000000e170                CDC_SetControlLineState
 .text.CDC_SendBreak
                0x000000000000e174        0x4 build/cdcuser.o
                0x000000000000e174                CDC_SendBreak
 .text.CDC_BulkIn
                0x000000000000e178       0x18 build/cdcuser.o
                0x000000000000e178                CDC_BulkIn
 .text.CDC_BulkOut
                0x000000000000e190       0x20 build/cdcuser.o
                0x000000000000e190                CDC_BulkOut
 .text.CDC_GetSerialState
                0x000000000000e1b0       0x78 build/cdcuser.o
                0x000000000000e1b0                CDC_GetSerialState
 .text.CDC_Init
                0x000000000000e228       0x54 build/cdcuser.o
                0x000000000000e228                CDC_Init
 .text.CDC_NotificationIn
                0x000000000000e27c       0x34 build/cdcuser.o
                0x000000000000e27c                CDC_NotificationIn
 .text.ser_OpenPort
                0x000000000000e2b0       0x40 build/serial.o
                0x000000000000e2b0                ser_OpenPort
 .text.ser_ClosePort
                0x000000000000e2f0       0x3c build/serial.o
                0x000000000000e2f0                ser_ClosePort
 .text.ser_InitPort0
                0x000000000000e32c       0xc0 build/serial.o
                0x000000000000e32c                ser_InitPort0
 .text.ser_InitPort1
                0x000000000000e3ec       0xbc build/serial.o
                0x000000000000e3ec                ser_InitPort1
 .text.ser_Read
                0x000000000000e4a8       0x2c build/serial.o
                0x000000000000e4a8                ser_Read
 .text.ser_AvailChar
                0x000000000000e4d4       0x18 build/serial.o
                0x000000000000e4d4                ser_AvailChar
 .text.ser_LineState
                0x000000000000e4ec       0x10 build/serial.o
                0x000000000000e4ec                ser_LineState
 .text.UART0_IRQHandler
                0x000000000000e4fc        0x2 build/serial.o
                0x000000000000e4fc                UART0_IRQHandler
 .text.UART1_IRQHandler
                0x000000000000e4fe        0x2 build/serial.o
                0x000000000000e4fe                UART1_IRQHandler
 .text.riceive_Data
                0x000000000000e500       0x28 build/serial.o
                0x000000000000e500                riceive_Data
 .text.LED_init
                0x000000000000e528       0x24 build/led/lib_led.o
                0x000000000000e528                LED_init
 .text.VCOM_Init
                0x000000000000e54c        0x6 build/vcomdemo.o
                0x000000000000e54c                VCOM_Init
 *fill*         0x000000000000e552        0x2 
 .text.VCOM_Serial2Usb
                0x000000000000e554       0x2c build/vcomdemo.o
                0x000000000000e554                VCOM_Serial2Usb
 .text.memcpy   0x000000000000e580       0x50 build/lib/libc/string0.o
                0x000000000000e580                memcpy
 .text.memmove  0x000000000000e5d0       0x2c build/lib/libc/string0.o
                0x000000000000e5d0                memmove
 .text.memset   0x000000000000e5fc       0x40 build/lib/libc/string0.o
                0x000000000000e5fc                memset
 .text.memcmp   0x000000000000e63c       0x24 build/lib/libc/string0.o
                0x000000000000e63c                memcmp
 .text.strlen   0x000000000000e660       0x10 build/lib/libc/string0.o
                0x000000000000e660                strlen
 .text.strcmp   0x000000000000e670       0x2e build/lib/libc/string0.o
                0x000000000000e670                strcmp
 .text.strncmp  0x000000000000e69e       0x40 build/lib/libc/string0.o
                0x000000000000e69e                strncmp
 .text.strchr   0x000000000000e6de       0x1a build/lib/libc/string0.o
                0x000000000000e6de                strchr
 .text          0x000000000000e6f8        0xa build/startup_LPC17xx.o
                0x000000000000e6f8                SVC_Handler
                0x000000000000e6fa                DebugMon_Handler
                0x000000000000e6fc                PendSV_Handler
                0x000000000000e6fe                SysTick_Handler
                0x000000000000e700                TIMER2_IRQHandler
                0x000000000000e700                RIT_IRQHandler
                0x000000000000e700                I2C0_IRQHandler
                0x000000000000e700                PWM1_IRQHandler
                0x000000000000e700                I2C1_IRQHandler
                0x000000000000e700                EINT2_IRQHandler
                0x000000000000e700                EINT3_IRQHandler
                0x000000000000e700                TIMER3_IRQHandler
                0x000000000000e700                PLL0_IRQHandler
                0x000000000000e700                CAN_IRQHandler
                0x000000000000e700                PLL1_IRQHandler
                0x000000000000e700                SSP0_IRQHandler
                0x000000000000e700                I2S_IRQHandler
                0x000000000000e700                I2C2_IRQHandler
                0x000000000000e700                RTC_IRQHandler
                0x000000000000e700                TIMER0_IRQHandler
                0x000000000000e700                SPI_IRQHandler
                0x000000000000e700                EINT1_IRQHandler
                0x000000000000e700                TIMER1_IRQHandler
                0x000000000000e700                UART2_IRQHandler
                0x000000000000e700                Default_Handler
                0x000000000000e700                ADC_IRQHandler
                0x000000000000e700                SSP1_IRQHandler
                0x000000000000e700                BOD_IRQHandler
                0x000000000000e700                WDT_IRQHandler
                0x000000000000e700                QEI_IRQHandler
                0x000000000000e700                EINT0_IRQHandler
                0x000000000000e700                DMA_IRQHandler
                0x000000000000e700                UART3_IRQHandler
                0x000000000000e700                MCPWM_IRQHandler
                0x000000000000e700                ENET_IRQHandler
 *(.plt)
 *(.gnu.warning)
 *(.glue_7t)
 .glue_7t       0x000000000000e702        0x0 linker stubs
 *(.glue_7)
 .glue_7        0x000000000000e702        0x0 linker stubs
 *(.vfp11_veneer)
 .vfp11_veneer  0x000000000000e702        0x0 linker stubs
 *(.rodata .rodata.* .gnu.linkonce.r.*)
 *fill*         0x000000000000e702        0x2 
 .rodata.gc_dump_info.str1.4
                0x000000000000e704       0x69 build/py/gc.o
 .rodata        0x000000000000e76d        0x6 build/py/qstr.o
 .rodata.mp_decompress_rom_string.str1.1
                0x000000000000e773      0x2e8 build/py/qstr.o
 *fill*         0x000000000000ea5b        0x1 
 .rodata.mp_qstr_const_pool
                0x000000000000ea5c      0x350 build/py/qstr.o
                0x000000000000ea5c                mp_qstr_const_pool
 .rodata.qstr_from_strn.str1.1
                0x000000000000edac        0x7 build/py/qstr.o
 .rodata.str1.1
                0x000000000000edb3      0x829 build/py/qstr.o
 .rodata.mp_plat_print
                0x000000000000f5dc        0x8 build/py/mpprint.o
                0x000000000000f5dc                mp_plat_print
 .rodata.mp_print_mp_int.str1.1
                0x000000000000f5e4      0x829 build/py/mpprint.o
                                          0x1 (size before relaxing)
 .rodata.mp_vprintf.str1.1
                0x000000000000f5e4        0xb build/py/mpprint.o
 .rodata.pad_spaces
                0x000000000000f5ef       0x11 build/py/mpprint.o
 .rodata.pad_zeroes
                0x000000000000f600       0x11 build/py/mpprint.o
 .rodata.attr   0x000000000000f611       0x80 build/py/unicode.o
 .rodata.mp_lexer_to_next.str1.1
                0x000000000000f691       0x56 build/py/lexer.o
 .rodata.str1.1
                0x000000000000f6e7       0x9e build/py/lexer.o
                                         0xbc (size before relaxing)
 .rodata.tok_enc_kind
                0x000000000000f785       0x2c build/py/lexer.o
 *fill*         0x000000000000f7b1        0x3 
 .rodata.tok_kw
                0x000000000000f7b4       0x88 build/py/lexer.o
 .rodata.mp_parse.str1.1
                0x000000000000f83c       0x20 build/py/parse.o
 .rodata.rule_act_table
                0x000000000000f85c       0xa3 build/py/parse.o
 *fill*         0x000000000000f8ff        0x1 
 .rodata.rule_arg_combined_table
                0x000000000000f900      0x348 build/py/parse.o
 .rodata.rule_arg_offset_table
                0x000000000000fc48       0xa3 build/py/parse.o
 .rodata.scope_simple_name_table
                0x000000000000fceb        0x7 build/py/scope.o
 .rodata.c_assign.str1.1
                0x000000000000fcf2        0x6 build/py/compile.o
 .rodata.c_assign_tuple.str1.1
                0x000000000000fcf8        0x6 build/py/compile.o
 .rodata.c_del_stmt.str1.1
                0x000000000000fcfe        0xa build/py/compile.o
 .rodata.compile_atom_expr_normal.str1.1
                0x000000000000fd08        0xf build/py/compile.o
 .rodata.compile_break_cont_stmt.str1.1
                0x000000000000fd17        0x8 build/py/compile.o
 .rodata.compile_decorated.str1.1
                0x000000000000fd1f       0x18 build/py/compile.o
 .rodata.compile_funcdef_lambdef_param.str1.1
                0x000000000000fd37       0x17 build/py/compile.o
 *fill*         0x000000000000fd4e        0x2 
 .rodata.compile_function
                0x000000000000fd50       0xd8 build/py/compile.o
 .rodata.compile_global_nonlocal_stmt.str1.1
                0x000000000000fe28       0x26 build/py/compile.o
 .rodata.compile_scope_func_lambda_param.isra.6.str1.1
                0x000000000000fe4e        0xa build/py/compile.o
                                          0xe (size before relaxing)
 .rodata.compile_star_expr.str1.1
                0x000000000000fe58        0xc build/py/compile.o
 .rodata.compile_trailer_paren_helper.str1.1
                0x000000000000fe64       0x24 build/py/compile.o
 .rodata.compile_try_except.str1.1
                0x000000000000fe88        0xa build/py/compile.o
 .rodata.compile_yield_expr.str1.1
                0x000000000000fe92        0x5 build/py/compile.o
 *fill*         0x000000000000fe97        0x1 
 .rodata.mp_emit_bc_method_table_delete_id_ops
                0x000000000000fe98        0x8 build/py/emitbc.o
                0x000000000000fe98                mp_emit_bc_method_table_delete_id_ops
 .rodata.mp_emit_bc_method_table_load_id_ops
                0x000000000000fea0        0x8 build/py/emitbc.o
                0x000000000000fea0                mp_emit_bc_method_table_load_id_ops
 .rodata.mp_emit_bc_method_table_store_id_ops
                0x000000000000fea8        0x8 build/py/emitbc.o
                0x000000000000fea8                mp_emit_bc_method_table_store_id_ops
 .rodata.mp_parse_num_decimal.str1.1
                0x000000000000feb0       0x13 build/py/parsenum.o
 .rodata.mp_parse_num_integer.str1.1
                0x000000000000fec3       0x1c build/py/parsenum.o
 .rodata.m_malloc_fail.str1.1
                0x000000000000fedf       0x18 build/py/runtime.o
 .rodata.mp_binary_op.str1.1
                0x000000000000fef7       0x28 build/py/runtime.o
 .rodata.mp_call_function_n_kw.str1.1
                0x000000000000ff1f        0x5 build/py/runtime.o
 .rodata.mp_getiter.str1.1
                0x000000000000ff24        0xc build/py/runtime.o
 .rodata.mp_import_from.str1.1
                0x000000000000ff30        0x6 build/py/runtime.o
 .rodata.mp_iternext_allow_raise.str1.1
                0x000000000000ff36        0xd build/py/runtime.o
 .rodata.mp_load_global.str1.1
                0x000000000000ff43        0xb build/py/runtime.o
 .rodata.mp_load_method.str1.1
                0x000000000000ff4e        0x8 build/py/runtime.o
 .rodata.mp_make_raise_obj.str1.1
                0x000000000000ff56       0x15 build/py/runtime.o
 *fill*         0x000000000000ff6b        0x1 
 .rodata.mp_module___main__
                0x000000000000ff6c        0x8 build/py/runtime.o
                0x000000000000ff6c                mp_module___main__
 .rodata.mp_resume.str1.1
                0x000000000000ff74        0xa build/py/runtime.o
 .rodata.mp_unary_op.str1.1
                0x000000000000ff7e       0x1d build/py/runtime.o
 .rodata.mp_unpack_sequence.str1.1
                0x000000000000ff9b        0xd build/py/runtime.o
 .rodata.mp_arg_error_terse_mismatch.str1.1
                0x000000000000ffa8       0x15 build/py/argcheck.o
 *fill*         0x000000000000ffbd        0x1 
 .rodata.hash_allocation_sizes
                0x000000000000ffbe       0x44 build/py/map.o
 .rodata.mp_get_buffer_raise.str1.1
                0x0000000000010002        0xe build/py/obj.o
 .rodata.mp_get_index.str1.1
                0x0000000000010010       0x13 build/py/obj.o
 *fill*         0x0000000000010023        0x1 
 .rodata.mp_identity_obj
                0x0000000000010024        0x8 build/py/obj.o
                0x0000000000010024                mp_identity_obj
 .rodata.mp_obj_get_array.str1.1
                0x000000000001002c        0xb build/py/obj.o
 .rodata.mp_obj_len.str1.1
                0x0000000000010037        0x8 build/py/obj.o
 .rodata.mp_obj_print_exception.str1.1
                0x000000000001003f       0x39 build/py/obj.o
                                         0x3b (size before relaxing)
 .rodata.mp_obj_print_helper.str1.1
                0x0000000000010078        0x5 build/py/obj.o
 .rodata.mp_obj_subscr.str1.1
                0x000000000001007d       0x26 build/py/obj.o
 *fill*         0x00000000000100a3        0x1 
 .rodata.types.7185
                0x00000000000100a4       0x40 build/py/obj.o
 .rodata.bool_print.str1.1
                0x00000000000100e4        0xb build/py/objbool.o
 .rodata.mp_type_bool
                0x00000000000100e4       0x3c build/py/objbool.o
                0x00000000000100e4                mp_type_bool
 .rodata.mp_type_bound_meth
                0x0000000000010120       0x3c build/py/objboundmeth.o
 .rodata.mp_type_cell
                0x000000000001015c       0x3c build/py/objcell.o
 .rodata.closure_type
                0x0000000000010198       0x3c build/py/objclosure.o
                0x0000000000010198                closure_type
 .rodata.dict_clear_obj
                0x00000000000101d4        0x8 build/py/objdict.o
 .rodata.dict_copy_obj
                0x00000000000101dc        0x8 build/py/objdict.o
 .rodata.dict_get_obj
                0x00000000000101e4        0xc build/py/objdict.o
 .rodata.dict_items_obj
                0x00000000000101f0        0x8 build/py/objdict.o
 .rodata.dict_keys_obj
                0x00000000000101f8        0x8 build/py/objdict.o
 .rodata.dict_locals_dict
                0x0000000000010200       0x10 build/py/objdict.o
 .rodata.dict_locals_dict_table
                0x0000000000010210       0x68 build/py/objdict.o
 .rodata.dict_pop_obj
                0x0000000000010278        0xc build/py/objdict.o
 .rodata.dict_popitem.str1.1
                0x0000000000010284       0x19 build/py/objdict.o
 *fill*         0x000000000001029d        0x3 
 .rodata.dict_popitem_obj
                0x00000000000102a0        0x8 build/py/objdict.o
 .rodata.dict_print.str1.1
                0x00000000000102a8        0x2 build/py/objdict.o
                                          0x7 (size before relaxing)
 *fill*         0x00000000000102aa        0x2 
 .rodata.dict_setdefault_obj
                0x00000000000102ac        0xc build/py/objdict.o
 .rodata.dict_update.str1.1
                0x00000000000102b8       0x11 build/py/objdict.o
 *fill*         0x00000000000102c9        0x3 
 .rodata.dict_update_obj
                0x00000000000102cc        0xc build/py/objdict.o
 .rodata.dict_values_obj
                0x00000000000102d8        0x8 build/py/objdict.o
 .rodata.dict_view_it_type
                0x00000000000102e0       0x3c build/py/objdict.o
 .rodata.dict_view_print.str1.1
                0x000000000001031c        0x9 build/py/objdict.o
 *fill*         0x0000000000010325        0x3 
 .rodata.dict_view_type
                0x0000000000010328       0x3c build/py/objdict.o
 .rodata.mp_dict_view_names
                0x0000000000010364        0xc build/py/objdict.o
 .rodata.mp_type_dict
                0x0000000000010370       0x3c build/py/objdict.o
                0x0000000000010370                mp_type_dict
 .rodata.str1.1
                0x00000000000103ac       0x21 build/py/objdict.o
 .rodata.mp_obj_exception_print.str1.1
                0x00000000000103cd        0x4 build/py/objexcept.o
 *fill*         0x00000000000103cd        0x3 
 .rodata.mp_type_ArithmeticError
                0x00000000000103d0       0x3c build/py/objexcept.o
                0x00000000000103d0                mp_type_ArithmeticError
 .rodata.mp_type_AssertionError
                0x000000000001040c       0x3c build/py/objexcept.o
                0x000000000001040c                mp_type_AssertionError
 .rodata.mp_type_AttributeError
                0x0000000000010448       0x3c build/py/objexcept.o
                0x0000000000010448                mp_type_AttributeError
 .rodata.mp_type_BaseException
                0x0000000000010484       0x3c build/py/objexcept.o
                0x0000000000010484                mp_type_BaseException
 .rodata.mp_type_EOFError
                0x00000000000104c0       0x3c build/py/objexcept.o
                0x00000000000104c0                mp_type_EOFError
 .rodata.mp_type_Exception
                0x00000000000104fc       0x3c build/py/objexcept.o
                0x00000000000104fc                mp_type_Exception
 .rodata.mp_type_GeneratorExit
                0x0000000000010538       0x3c build/py/objexcept.o
                0x0000000000010538                mp_type_GeneratorExit
 .rodata.mp_type_ImportError
                0x0000000000010574       0x3c build/py/objexcept.o
                0x0000000000010574                mp_type_ImportError
 .rodata.mp_type_IndentationError
                0x00000000000105b0       0x3c build/py/objexcept.o
                0x00000000000105b0                mp_type_IndentationError
 .rodata.mp_type_IndexError
                0x00000000000105ec       0x3c build/py/objexcept.o
                0x00000000000105ec                mp_type_IndexError
 .rodata.mp_type_KeyError
                0x0000000000010628       0x3c build/py/objexcept.o
                0x0000000000010628                mp_type_KeyError
 .rodata.mp_type_KeyboardInterrupt
                0x0000000000010664       0x3c build/py/objexcept.o
                0x0000000000010664                mp_type_KeyboardInterrupt
 .rodata.mp_type_LookupError
                0x00000000000106a0       0x3c build/py/objexcept.o
                0x00000000000106a0                mp_type_LookupError
 .rodata.mp_type_MemoryError
                0x00000000000106dc       0x3c build/py/objexcept.o
                0x00000000000106dc                mp_type_MemoryError
 .rodata.mp_type_NameError
                0x0000000000010718       0x3c build/py/objexcept.o
                0x0000000000010718                mp_type_NameError
 .rodata.mp_type_NotImplementedError
                0x0000000000010754       0x3c build/py/objexcept.o
                0x0000000000010754                mp_type_NotImplementedError
 .rodata.mp_type_OSError
                0x0000000000010790       0x3c build/py/objexcept.o
                0x0000000000010790                mp_type_OSError
 .rodata.mp_type_OverflowError
                0x00000000000107cc       0x3c build/py/objexcept.o
                0x00000000000107cc                mp_type_OverflowError
 .rodata.mp_type_RuntimeError
                0x0000000000010808       0x3c build/py/objexcept.o
                0x0000000000010808                mp_type_RuntimeError
 .rodata.mp_type_StopIteration
                0x0000000000010844       0x3c build/py/objexcept.o
                0x0000000000010844                mp_type_StopIteration
 .rodata.mp_type_SyntaxError
                0x0000000000010880       0x3c build/py/objexcept.o
                0x0000000000010880                mp_type_SyntaxError
 .rodata.mp_type_SystemExit
                0x00000000000108bc       0x3c build/py/objexcept.o
                0x00000000000108bc                mp_type_SystemExit
 .rodata.mp_type_TypeError
                0x00000000000108f8       0x3c build/py/objexcept.o
                0x00000000000108f8                mp_type_TypeError
 .rodata.mp_type_ValueError
                0x0000000000010934       0x3c build/py/objexcept.o
                0x0000000000010934                mp_type_ValueError
 .rodata.mp_type_ZeroDivisionError
                0x0000000000010970       0x3c build/py/objexcept.o
                0x0000000000010970                mp_type_ZeroDivisionError
 .rodata.mp_type_fun_bc
                0x00000000000109ac       0x3c build/py/objfun.o
                0x00000000000109ac                mp_type_fun_bc
 .rodata.mp_type_fun_builtin_0
                0x00000000000109e8       0x3c build/py/objfun.o
                0x00000000000109e8                mp_type_fun_builtin_0
 .rodata.mp_type_fun_builtin_1
                0x0000000000010a24       0x3c build/py/objfun.o
                0x0000000000010a24                mp_type_fun_builtin_1
 .rodata.mp_type_fun_builtin_2
                0x0000000000010a60       0x3c build/py/objfun.o
                0x0000000000010a60                mp_type_fun_builtin_2
 .rodata.mp_type_fun_builtin_3
                0x0000000000010a9c       0x3c build/py/objfun.o
                0x0000000000010a9c                mp_type_fun_builtin_3
 .rodata.mp_type_fun_builtin_var
                0x0000000000010ad8       0x3c build/py/objfun.o
                0x0000000000010ad8                mp_type_fun_builtin_var
 .rodata.gen_instance_close.str1.1
                0x0000000000010b14        0xb build/py/objgenerator.o
 *fill*         0x0000000000010b1f        0x1 
 .rodata.gen_instance_close_obj
                0x0000000000010b20        0x8 build/py/objgenerator.o
 .rodata.gen_instance_locals_dict
                0x0000000000010b28       0x10 build/py/objgenerator.o
 .rodata.gen_instance_locals_dict_table
                0x0000000000010b38       0x20 build/py/objgenerator.o
 .rodata.gen_instance_pend_throw.str1.1
                0x0000000000010b58        0xd build/py/objgenerator.o
 *fill*         0x0000000000010b65        0x3 
 .rodata.gen_instance_pend_throw_obj
                0x0000000000010b68        0x8 build/py/objgenerator.o
 .rodata.gen_instance_print.str1.1
                0x0000000000010b70       0x1e build/py/objgenerator.o
 *fill*         0x0000000000010b8e        0x2 
 .rodata.gen_instance_send_obj
                0x0000000000010b90        0x8 build/py/objgenerator.o
 .rodata.gen_instance_throw_obj
                0x0000000000010b98        0xc build/py/objgenerator.o
 .rodata.mp_const_GeneratorExit_obj
                0x0000000000010ba4       0x10 build/py/objgenerator.o
                0x0000000000010ba4                mp_const_GeneratorExit_obj
 .rodata.mp_obj_gen_resume.str1.1
                0x0000000000010bb4       0x20 build/py/objgenerator.o
                                         0x2a (size before relaxing)
 .rodata.mp_type_gen_instance
                0x0000000000010bd4       0x3c build/py/objgenerator.o
                0x0000000000010bd4                mp_type_gen_instance
 .rodata.mp_type_gen_wrap
                0x0000000000010c10       0x3c build/py/objgenerator.o
                0x0000000000010c10                mp_type_gen_wrap
 .rodata.it_type
                0x0000000000010c4c       0x3c build/py/objgetitemiter.o
 .rodata.int_from_bytes_fun_obj
                0x0000000000010c88        0xc build/py/objint.o
 .rodata.int_from_bytes_obj
                0x0000000000010c94        0x8 build/py/objint.o
 .rodata.int_locals_dict
                0x0000000000010c9c       0x10 build/py/objint.o
 .rodata.int_locals_dict_table
                0x0000000000010cac       0x10 build/py/objint.o
 .rodata.int_to_bytes_obj
                0x0000000000010cbc        0xc build/py/objint.o
 .rodata.log_base2_floor
                0x0000000000010cc8       0x10 build/py/objint.o
 .rodata.mp_obj_new_int_from_ll.str1.1
                0x0000000000010cd8       0x10 build/py/objint.o
 .rodata.mp_obj_new_int_from_str_len.str1.1
                0x0000000000010ce8        0xc build/py/objint.o
 .rodata.mp_type_int
                0x0000000000010cf4       0x3c build/py/objint.o
                0x0000000000010cf4                mp_type_int
 .rodata.allowed_args.6161
                0x0000000000010d30       0x10 build/py/objlist.o
 .rodata.list_append_obj
                0x0000000000010d40        0x8 build/py/objlist.o
 .rodata.list_clear_obj
                0x0000000000010d48        0x8 build/py/objlist.o
 .rodata.list_copy_obj
                0x0000000000010d50        0x8 build/py/objlist.o
 .rodata.list_count_obj
                0x0000000000010d58        0x8 build/py/objlist.o
 .rodata.list_extend_obj
                0x0000000000010d60        0x8 build/py/objlist.o
 .rodata.list_index_obj
                0x0000000000010d68        0xc build/py/objlist.o
 .rodata.list_insert_obj
                0x0000000000010d74        0x8 build/py/objlist.o
 .rodata.list_locals_dict
                0x0000000000010d7c       0x10 build/py/objlist.o
 .rodata.list_locals_dict_table
                0x0000000000010d8c       0x58 build/py/objlist.o
 .rodata.list_pop.str1.1
                0x0000000000010de4        0x8 build/py/objlist.o
 .rodata.list_pop_obj
                0x0000000000010dec        0xc build/py/objlist.o
 .rodata.list_print.str1.1
                0x0000000000010df8        0x2 build/py/objlist.o
                                          0x7 (size before relaxing)
 *fill*         0x0000000000010dfa        0x2 
 .rodata.list_remove_obj
                0x0000000000010dfc        0x8 build/py/objlist.o
 .rodata.list_reverse_obj
                0x0000000000010e04        0x8 build/py/objlist.o
 .rodata.list_sort_obj
                0x0000000000010e0c        0xc build/py/objlist.o
 .rodata.mp_type_list
                0x0000000000010e18       0x3c build/py/objlist.o
                0x0000000000010e18                mp_type_list
 .rodata.mp_type_map
                0x0000000000010e54       0x3c build/py/objmap.o
                0x0000000000010e54                mp_type_map
 .rodata.module_print.str1.1
                0x0000000000010e90        0xe build/py/objmodule.o
                                          0xf (size before relaxing)
 *fill*         0x0000000000010e9e        0x2 
 .rodata.mp_builtin_module_map
                0x0000000000010ea0        0xc build/py/objmodule.o
                0x0000000000010ea0                mp_builtin_module_map
 .rodata.mp_builtin_module_table
                0x0000000000010eac       0x18 build/py/objmodule.o
 .rodata.mp_type_module
                0x0000000000010ec4       0x3c build/py/objmodule.o
                0x0000000000010ec4                mp_type_module
 .rodata.mp_type_object
                0x0000000000010f00       0x3c build/py/objobject.o
                0x0000000000010f00                mp_type_object
 .rodata.mp_type_polymorph_iter
                0x0000000000010f3c       0x3c build/py/objpolyiter.o
                0x0000000000010f3c                mp_type_polymorph_iter
 .rodata.mp_type_NoneType
                0x0000000000010f78       0x3c build/py/objnone.o
                0x0000000000010f78                mp_type_NoneType
 .rodata.none_print.str1.1
                0x0000000000010fb4        0x5 build/py/objnone.o
 .rodata.mp_type_range
                0x0000000000010fb4       0x3c build/py/objrange.o
                0x0000000000010fb4                mp_type_range
 .rodata.range_it_type
                0x0000000000010ff0       0x3c build/py/objrange.o
 .rodata.range_make_new.str1.1
                0x000000000001102c        0x7 build/py/objrange.o
 .rodata.range_print.str1.1
                0x0000000000011033       0x13 build/py/objrange.o
                                         0x15 (size before relaxing)
 *fill*         0x0000000000011046        0x2 
 .rodata.mp_const_ellipsis_obj
                0x0000000000011048        0x8 build/py/objsingleton.o
                0x0000000000011048                mp_const_ellipsis_obj
 .rodata.mp_type_singleton
                0x0000000000011050       0x3c build/py/objsingleton.o
                0x0000000000011050                mp_type_singleton
 .rodata.singleton_print.str1.1
                0x000000000001108c        0x3 build/py/objsingleton.o
 .rodata.bad_implicit_conversion.isra.2.str1.1
                0x000000000001108f       0x13 build/py/objstr.o
 .rodata.bytes_make_new.str1.1
                0x00000000000110a2        0xd build/py/objstr.o
 *fill*         0x00000000000110af        0x1 
 .rodata.mp_const_empty_bytes_obj
                0x00000000000110b0       0x10 build/py/objstr.o
                0x00000000000110b0                mp_const_empty_bytes_obj
 .rodata.mp_obj_str_format_helper.str1.1
                0x00000000000110c0       0x24 build/py/objstr.o
 .rodata.mp_obj_str_split.str1.1
                0x00000000000110e4        0xc build/py/objstr.o
 .rodata.mp_str_print_quoted.str1.1
                0x00000000000110f0       0x17 build/py/objstr.o
                                         0x1a (size before relaxing)
 *fill*         0x0000000000011107        0x1 
 .rodata.mp_type_bytes
                0x0000000000011108       0x3c build/py/objstr.o
                0x0000000000011108                mp_type_bytes
 .rodata.mp_type_str
                0x0000000000011144       0x3c build/py/objstr.o
                0x0000000000011144                mp_type_str
 .rodata.str1.1
                0x0000000000011180        0x1 build/py/objstr.o
 .rodata.str8_locals_dict
                0x0000000000011180       0x10 build/py/objstr.o
 .rodata.str8_locals_dict_table
                0x0000000000011190       0xa8 build/py/objstr.o
 .rodata.str_endswith.str1.1
                0x0000000000011238        0xc build/py/objstr.o
 .rodata.str_endswith_obj
                0x0000000000011244        0xc build/py/objstr.o
                0x0000000000011244                str_endswith_obj
 .rodata.str_find_obj
                0x0000000000011250        0xc build/py/objstr.o
                0x0000000000011250                str_find_obj
 .rodata.str_finder.str1.1
                0x000000000001125c        0xd build/py/objstr.o
 *fill*         0x0000000000011269        0x3 
 .rodata.str_format_obj
                0x000000000001126c        0xc build/py/objstr.o
                0x000000000001126c                str_format_obj
 .rodata.str_index_obj
                0x0000000000011278        0xc build/py/objstr.o
                0x0000000000011278                str_index_obj
 .rodata.str_isalpha_obj
                0x0000000000011284        0x8 build/py/objstr.o
                0x0000000000011284                str_isalpha_obj
 .rodata.str_isdigit_obj
                0x000000000001128c        0x8 build/py/objstr.o
                0x000000000001128c                str_isdigit_obj
 .rodata.str_islower_obj
                0x0000000000011294        0x8 build/py/objstr.o
                0x0000000000011294                str_islower_obj
 .rodata.str_isspace_obj
                0x000000000001129c        0x8 build/py/objstr.o
                0x000000000001129c                str_isspace_obj
 .rodata.str_isupper_obj
                0x00000000000112a4        0x8 build/py/objstr.o
                0x00000000000112a4                str_isupper_obj
 .rodata.str_join.str1.1
                0x00000000000112ac       0x1f build/py/objstr.o
 *fill*         0x00000000000112cb        0x1 
 .rodata.str_join_obj
                0x00000000000112cc        0x8 build/py/objstr.o
                0x00000000000112cc                str_join_obj
 .rodata.str_lower_obj
                0x00000000000112d4        0x8 build/py/objstr.o
                0x00000000000112d4                str_lower_obj
 .rodata.str_lstrip_obj
                0x00000000000112dc        0xc build/py/objstr.o
                0x00000000000112dc                str_lstrip_obj
 .rodata.str_print.str1.1
                0x00000000000112e8        0x2 build/py/objstr.o
 *fill*         0x00000000000112ea        0x2 
 .rodata.str_replace_obj
                0x00000000000112ec        0xc build/py/objstr.o
                0x00000000000112ec                str_replace_obj
 .rodata.str_rfind_obj
                0x00000000000112f8        0xc build/py/objstr.o
                0x00000000000112f8                str_rfind_obj
 .rodata.str_rindex_obj
                0x0000000000011304        0xc build/py/objstr.o
                0x0000000000011304                str_rindex_obj
 .rodata.str_rsplit.str1.1
                0x0000000000011310        0xf build/py/objstr.o
 *fill*         0x000000000001131f        0x1 
 .rodata.str_rsplit_obj
                0x0000000000011320        0xc build/py/objstr.o
                0x0000000000011320                str_rsplit_obj
 .rodata.str_rstrip_obj
                0x000000000001132c        0xc build/py/objstr.o
                0x000000000001132c                str_rstrip_obj
 .rodata.str_split_obj
                0x0000000000011338        0xc build/py/objstr.o
                0x0000000000011338                str_split_obj
 .rodata.str_startswith_obj
                0x0000000000011344        0xc build/py/objstr.o
                0x0000000000011344                str_startswith_obj
 .rodata.str_strip_obj
                0x0000000000011350        0xc build/py/objstr.o
                0x0000000000011350                str_strip_obj
 .rodata.str_upper_obj
                0x000000000001135c        0x8 build/py/objstr.o
                0x000000000001135c                str_upper_obj
 .rodata.terse_str_format_value_error.str1.1
                0x0000000000011364       0x10 build/py/objstr.o
 .rodata.whitespace.6390
                0x0000000000011374        0x7 build/py/objstr.o
 *fill*         0x000000000001137b        0x1 
 .rodata.mp_const_empty_tuple_obj
                0x000000000001137c        0x8 build/py/objtuple.o
                0x000000000001137c                mp_const_empty_tuple_obj
 .rodata.mp_obj_tuple_print.str1.1
                0x0000000000011384        0x4 build/py/objtuple.o
                                          0x9 (size before relaxing)
 .rodata.mp_type_tuple
                0x0000000000011388       0x3c build/py/objtuple.o
                0x0000000000011388                mp_type_tuple
 .rodata.tuple_count_obj
                0x00000000000113c4        0x8 build/py/objtuple.o
 .rodata.tuple_index_obj
                0x00000000000113cc        0xc build/py/objtuple.o
 .rodata.tuple_locals_dict
                0x00000000000113d8       0x10 build/py/objtuple.o
 .rodata.tuple_locals_dict_table
                0x00000000000113e8       0x10 build/py/objtuple.o
 .rodata.instance_print.str1.1
                0x00000000000113f8       0x12 build/py/objtype.o
 .rodata.mp_binary_op_method_name
                0x000000000001140a       0x25 build/py/objtype.o
                0x000000000001140a                mp_binary_op_method_name
 *fill*         0x000000000001142f        0x1 
 .rodata.mp_builtin_isinstance_obj
                0x0000000000011430        0x8 build/py/objtype.o
                0x0000000000011430                mp_builtin_isinstance_obj
 .rodata.mp_builtin_issubclass.str1.1
                0x0000000000011438        0x9 build/py/objtype.o
 *fill*         0x0000000000011441        0x3 
 .rodata.mp_builtin_issubclass_obj
                0x0000000000011444        0x8 build/py/objtype.o
                0x0000000000011444                mp_builtin_issubclass_obj
 .rodata.mp_obj_instance_call.str1.1
                0x000000000001144c        0x5 build/py/objtype.o
 .rodata.mp_obj_instance_make_new.str1.1
                0x000000000001144c       0x11 build/py/objtype.o
 .rodata.mp_obj_is_subclass.str1.1
                0x000000000001145d        0xe build/py/objtype.o
 .rodata.mp_obj_new_type.str1.1
                0x000000000001146b       0x16 build/py/objtype.o
 *fill*         0x0000000000011481        0x3 
 .rodata.mp_type_classmethod
                0x0000000000011484       0x3c build/py/objtype.o
                0x0000000000011484                mp_type_classmethod
 .rodata.mp_type_staticmethod
                0x00000000000114c0       0x3c build/py/objtype.o
                0x00000000000114c0                mp_type_staticmethod
 .rodata.mp_type_super
                0x00000000000114fc       0x3c build/py/objtype.o
                0x00000000000114fc                mp_type_super
 .rodata.mp_type_type
                0x0000000000011538       0x3c build/py/objtype.o
                0x0000000000011538                mp_type_type
 .rodata.mp_unary_op_method_name
                0x0000000000011574        0xa build/py/objtype.o
                0x0000000000011574                mp_unary_op_method_name
 *fill*         0x000000000001157e        0x2 
 .rodata.native_base_init_wrapper_obj
                0x0000000000011580        0xc build/py/objtype.o
 .rodata.super_print.str1.1
                0x000000000001158c        0x9 build/py/objtype.o
                                          0xe (size before relaxing)
 .rodata.type_call.str1.1
                0x0000000000011595        0xa build/py/objtype.o
 .rodata.type_make_new.str1.1
                0x000000000001159f        0xc build/py/objtype.o
 .rodata.type_print.str1.1
                0x00000000000115ab        0xd build/py/objtype.o
 .rodata.mp_type_zip
                0x00000000000115b8       0x3c build/py/objzip.o
                0x00000000000115b8                mp_type_zip
 .rodata.mp_op_delitem_obj
                0x00000000000115f4        0x8 build/py/opmethods.o
                0x00000000000115f4                mp_op_delitem_obj
 .rodata.mp_op_getitem_obj
                0x00000000000115fc        0x8 build/py/opmethods.o
                0x00000000000115fc                mp_op_getitem_obj
 .rodata.mp_op_setitem_obj
                0x0000000000011604        0x8 build/py/opmethods.o
                0x0000000000011604                mp_op_setitem_obj
 .rodata.mp_seq_index_obj.str1.1
                0x000000000001160c        0x6 build/py/sequence.o
 .rodata.mp_builtin___import__.str1.1
                0x0000000000011612       0x2a build/py/builtinimport.o
 .rodata.mp_builtin___import___obj
                0x000000000001163c        0xc build/py/builtinimport.o
                0x000000000001163c                mp_builtin___import___obj
 .rodata.stat_dir_or_file.str1.1
                0x0000000000011648       0x2a build/py/builtinimport.o
                                          0x4 (size before relaxing)
 .rodata.mp_builtin_eval_obj
                0x0000000000011648        0xc build/py/builtinevex.o
                0x0000000000011648                mp_builtin_eval_obj
 .rodata.mp_builtin_exec_obj
                0x0000000000011654        0xc build/py/builtinevex.o
                0x0000000000011654                mp_builtin_exec_obj
 .rodata.allowed_args.7380
                0x0000000000011660       0x10 build/py/modbuiltins.o
 .rodata.mp_builtin___build_class___obj
                0x0000000000011670        0xc build/py/modbuiltins.o
                0x0000000000011670                mp_builtin___build_class___obj
 .rodata.mp_builtin___repl_print__.str1.1
                0x000000000001167c        0x2 build/py/modbuiltins.o
 .rodata.mp_builtin___repl_print___obj
                0x000000000001167c        0x8 build/py/modbuiltins.o
                0x000000000001167c                mp_builtin___repl_print___obj
 .rodata.mp_builtin_abs_obj
                0x0000000000011684        0x8 build/py/modbuiltins.o
                0x0000000000011684                mp_builtin_abs_obj
 .rodata.mp_builtin_all_obj
                0x000000000001168c        0x8 build/py/modbuiltins.o
                0x000000000001168c                mp_builtin_all_obj
 .rodata.mp_builtin_any_obj
                0x0000000000011694        0x8 build/py/modbuiltins.o
                0x0000000000011694                mp_builtin_any_obj
 .rodata.mp_builtin_bin_obj
                0x000000000001169c        0x8 build/py/modbuiltins.o
                0x000000000001169c                mp_builtin_bin_obj
 .rodata.mp_builtin_callable_obj
                0x00000000000116a4        0x8 build/py/modbuiltins.o
                0x00000000000116a4                mp_builtin_callable_obj
 .rodata.mp_builtin_chr.str1.1
                0x00000000000116ac       0x10 build/py/modbuiltins.o
 .rodata.mp_builtin_chr_obj
                0x00000000000116bc        0x8 build/py/modbuiltins.o
                0x00000000000116bc                mp_builtin_chr_obj
 .rodata.mp_builtin_dir_obj
                0x00000000000116c4        0xc build/py/modbuiltins.o
                0x00000000000116c4                mp_builtin_dir_obj
 .rodata.mp_builtin_divmod_obj
                0x00000000000116d0        0x8 build/py/modbuiltins.o
                0x00000000000116d0                mp_builtin_divmod_obj
 .rodata.mp_builtin_getattr_obj
                0x00000000000116d8        0xc build/py/modbuiltins.o
                0x00000000000116d8                mp_builtin_getattr_obj
 .rodata.mp_builtin_globals_obj
                0x00000000000116e4        0x8 build/py/modbuiltins.o
                0x00000000000116e4                mp_builtin_globals_obj
 .rodata.mp_builtin_hasattr_obj
                0x00000000000116ec        0x8 build/py/modbuiltins.o
                0x00000000000116ec                mp_builtin_hasattr_obj
 .rodata.mp_builtin_hash_obj
                0x00000000000116f4        0x8 build/py/modbuiltins.o
                0x00000000000116f4                mp_builtin_hash_obj
 .rodata.mp_builtin_hex_obj
                0x00000000000116fc        0x8 build/py/modbuiltins.o
                0x00000000000116fc                mp_builtin_hex_obj
 .rodata.mp_builtin_id_obj
                0x0000000000011704        0x8 build/py/modbuiltins.o
                0x0000000000011704                mp_builtin_id_obj
 .rodata.mp_builtin_iter_obj
                0x000000000001170c        0x8 build/py/modbuiltins.o
                0x000000000001170c                mp_builtin_iter_obj
 .rodata.mp_builtin_len_obj
                0x0000000000011714        0x8 build/py/modbuiltins.o
                0x0000000000011714                mp_builtin_len_obj
 .rodata.mp_builtin_locals_obj
                0x000000000001171c        0x8 build/py/modbuiltins.o
                0x000000000001171c                mp_builtin_locals_obj
 .rodata.mp_builtin_next_obj
                0x0000000000011724        0x8 build/py/modbuiltins.o
                0x0000000000011724                mp_builtin_next_obj
 .rodata.mp_builtin_oct_obj
                0x000000000001172c        0x8 build/py/modbuiltins.o
                0x000000000001172c                mp_builtin_oct_obj
 .rodata.mp_builtin_ord.str1.1
                0x0000000000011734        0x8 build/py/modbuiltins.o
 .rodata.mp_builtin_ord_obj
                0x000000000001173c        0x8 build/py/modbuiltins.o
                0x000000000001173c                mp_builtin_ord_obj
 .rodata.mp_builtin_pow.str1.1
                0x0000000000011744        0xa build/py/modbuiltins.o
 *fill*         0x000000000001174e        0x2 
 .rodata.mp_builtin_pow_obj
                0x0000000000011750        0xc build/py/modbuiltins.o
                0x0000000000011750                mp_builtin_pow_obj
 .rodata.mp_builtin_print_obj
                0x000000000001175c        0xc build/py/modbuiltins.o
                0x000000000001175c                mp_builtin_print_obj
 .rodata.mp_builtin_repr_obj
                0x0000000000011768        0x8 build/py/modbuiltins.o
                0x0000000000011768                mp_builtin_repr_obj
 .rodata.mp_builtin_round_obj
                0x0000000000011770        0xc build/py/modbuiltins.o
                0x0000000000011770                mp_builtin_round_obj
 .rodata.mp_builtin_setattr_obj
                0x000000000001177c        0x8 build/py/modbuiltins.o
                0x000000000001177c                mp_builtin_setattr_obj
 .rodata.mp_builtin_sorted.str1.1
                0x0000000000011784        0xd build/py/modbuiltins.o
 *fill*         0x0000000000011791        0x3 
 .rodata.mp_builtin_sorted_obj
                0x0000000000011794        0xc build/py/modbuiltins.o
                0x0000000000011794                mp_builtin_sorted_obj
 .rodata.mp_builtin_sum_obj
                0x00000000000117a0        0xc build/py/modbuiltins.o
                0x00000000000117a0                mp_builtin_sum_obj
 .rodata.mp_module_builtins
                0x00000000000117ac        0x8 build/py/modbuiltins.o
                0x00000000000117ac                mp_module_builtins
 .rodata.mp_module_builtins_globals
                0x00000000000117b4       0x10 build/py/modbuiltins.o
                0x00000000000117b4                mp_module_builtins_globals
 .rodata.mp_module_builtins_globals_table
                0x00000000000117c4      0x268 build/py/modbuiltins.o
 .rodata.mp_micropython_heap_lock_obj
                0x0000000000011a2c        0x8 build/py/modmicropython.o
 .rodata.mp_micropython_heap_unlock_obj
                0x0000000000011a34        0x8 build/py/modmicropython.o
 .rodata.mp_micropython_opt_level_obj
                0x0000000000011a3c        0xc build/py/modmicropython.o
 .rodata.mp_module_micropython
                0x0000000000011a48        0x8 build/py/modmicropython.o
                0x0000000000011a48                mp_module_micropython
 .rodata.mp_module_micropython_globals
                0x0000000000011a50       0x10 build/py/modmicropython.o
 .rodata.mp_module_micropython_globals_table
                0x0000000000011a60       0x28 build/py/modmicropython.o
 .rodata.mp_execute_bytecode.str1.4
                0x0000000000011a88       0x40 build/py/vm.o
                                         0x3d (size before relaxing)
 .rodata.mp_setup_code_state.str1.1
                0x0000000000011ac8       0x3a build/py/bc.o
 .rodata.import_str.6183
                0x0000000000011b02        0x8 build/py/repl.o
 .rodata.mp_repl_autocomplete.str1.1
                0x0000000000011b0a        0x4 build/py/repl.o
                                          0x8 (size before relaxing)
 .rodata.mp_repl_continue_with_input.str1.1
                0x0000000000011b0e       0x20 build/py/repl.o
 .rodata.main.str1.1
                0x0000000000011b0e        0x5 build/main.o
 *fill*         0x0000000000011b13        0x1 
 .rodata.mp_builtin_open_obj
                0x0000000000011b14        0xc build/main.o
                0x0000000000011b14                mp_builtin_open_obj
 .rodata.mp_hal_stdout_tx_strn_cooked.str1.1
                0x0000000000011b20        0x2 build/lib/utils/stdout_helpers.o
 .rodata.parse_compile_execute.str1.1
                0x0000000000011b22        0x2 build/lib/utils/pyexec.o
 .rodata.pyexec_friendly_repl.str1.1
                0x0000000000011b24       0x8f build/lib/utils/pyexec.o
                                         0x96 (size before relaxing)
 .rodata.pyexec_raw_repl.str1.1
                0x0000000000011bb3       0x21 build/lib/utils/pyexec.o
                                         0x26 (size before relaxing)
 .rodata.mp_hal_move_cursor_back.str1.1
                0x0000000000011bd4        0xa build/lib/mp-readline/readline.o
 .rodata.readline_auto_indent.str1.1
                0x0000000000011bde        0x5 build/lib/mp-readline/readline.o
 .rodata.readline_process_char.str1.1
                0x0000000000011be3        0x4 build/lib/mp-readline/readline.o
                                          0x7 (size before relaxing)
 *fill*         0x0000000000011be7        0x1 
 .rodata.const_obj_frozentest__lt_module_gt__0
                0x0000000000011be8       0x10 build/build/_frozen_mpy.o
 .rodata.const_obj_frozentest__lt_module_gt__1
                0x0000000000011bf8       0x10 build/build/_frozen_mpy.o
 .rodata.const_obj_frozentest__lt_module_gt__2
                0x0000000000011c08       0x10 build/build/_frozen_mpy.o
 .rodata.const_table_data_frozentest__lt_module_gt_
                0x0000000000011c18        0xc build/build/_frozen_mpy.o
 .rodata.fun_data_frozentest__lt_module_gt_
                0x0000000000011c24       0x55 build/build/_frozen_mpy.o
 *fill*         0x0000000000011c79        0x3 
 .rodata.mp_frozen_mpy_content
                0x0000000000011c7c        0x4 build/build/_frozen_mpy.o
                0x0000000000011c7c                mp_frozen_mpy_content
 .rodata.mp_frozen_mpy_names
                0x0000000000011c80       0x10 build/build/_frozen_mpy.o
                0x0000000000011c80                mp_frozen_mpy_names
 .rodata.mp_qstr_frozen_const_pool
                0x0000000000011c90       0x1c build/build/_frozen_mpy.o
                0x0000000000011c90                mp_qstr_frozen_const_pool
 .rodata.raw_code_frozentest__lt_module_gt_
                0x0000000000011cac        0xc build/build/_frozen_mpy.o
                0x0000000000011cac                raw_code_frozentest__lt_module_gt_
 .rodata.str1.1
                0x0000000000011cb8       0x70 build/build/_frozen_mpy.o
 .rodata.USB_ConfigDescriptor
                0x0000000000011d28       0x44 build/usbdesc.o
                0x0000000000011d28                USB_ConfigDescriptor
 .rodata.USB_DeviceDescriptor
                0x0000000000011d6c       0x12 build/usbdesc.o
                0x0000000000011d6c                USB_DeviceDescriptor
 .rodata.USB_StringDescriptor
                0x0000000000011d7e       0x68 build/usbdesc.o
                0x0000000000011d7e                USB_StringDescriptor
 *fill*         0x0000000000011de6        0x2 
 .rodata.USB_P_EP
                0x0000000000011de8       0x40 build/usbuser.o
                0x0000000000011de8                USB_P_EP
 .rodata.CSWTCH.15
                0x0000000000011e28        0x3 build/serial.o
 .rodata.CSWTCH.16
                0x0000000000011e2b        0x4 build/serial.o
 *(.ARM.extab* .gnu.linkonce.armextab.*)
 *(.gcc_except_table)
 *(.eh_frame_hdr)
 *(.eh_frame)
                0x0000000000011e30                . = ALIGN (0x4)
 *fill*         0x0000000000011e2f        0x1 
 *(.init)
                0x0000000000011e30                . = ALIGN (0x4)
                0x0000000000011e30                __preinit_array_start = .
 *(.preinit_array)
                0x0000000000011e30                __preinit_array_end = .
                0x0000000000011e30                . = ALIGN (0x4)
                0x0000000000011e30                __init_array_start = .
 *(SORT(.init_array.*))
 *(.init_array)
                0x0000000000011e30                __init_array_end = .
                0x0000000000011e30                . = ALIGN (0x4)
 *crtbegin.o(.ctors)
 *(EXCLUDE_FILE(*crtend.o) .ctors)
 *(SORT(.ctors.*))
 *crtend.o(.ctors)
                0x0000000000011e30                . = ALIGN (0x4)
 *(.fini)
                0x0000000000011e30                . = ALIGN (0x4)
                0x0000000000011e30                __fini_array_start = .
 *(.fini_array)
 *(SORT(.fini_array.*))
                0x0000000000011e30                __fini_array_end = .
 *crtbegin.o(.dtors)
 *(EXCLUDE_FILE(*crtend.o) .dtors)
 *(SORT(.dtors.*))
 *crtend.o(.dtors)
                0x0000000000011e30                . = ALIGN (0x4)
                0x0000000000011e30                __cs3_regions = .
                0x0000000000011e30        0x4 LONG 0x0
                0x0000000000011e34        0x4 LONG 0x11e50 __cs3_region_init_ram
                0x0000000000011e38        0x4 LONG 0x10000000 __cs3_region_start_ram
                0x0000000000011e3c        0x4 LONG 0x10 __cs3_region_init_size_ram
                0x0000000000011e40        0x4 LONG 0xc60 __cs3_region_zero_size_ram
                0x0000000000011e44                __exidx_start = .

.v4_bx          0x0000000000011e44        0x0
 .v4_bx         0x0000000000011e44        0x0 linker stubs

.iplt           0x0000000000011e44        0x0
 .iplt          0x0000000000011e44        0x0 build/py/mpstate.o

.ARM.exidx      0x0000000000011e44        0x8
 *(.ARM.exidx* .gnu.linkonce.armexidx.*)
 .ARM.exidx.cs3.reset
                0x0000000000011e44        0x8 build/startup_LPC17xx.o
                0x0000000000011e4c                __exidx_end = .

.rel.dyn        0x0000000000011e4c        0x0
 .rel.iplt      0x0000000000011e4c        0x0 build/py/mpstate.o

.text.align     0x0000000000011e4c        0x4
                0x0000000000011e50                . = ALIGN (0x8)
 *fill*         0x0000000000011e4c        0x4 
                0x0000000000011e50                _etext = .
                0x0000000000080000                __cs3_region_size_rom = LENGTH (rom)
                0x0000000000000001                __cs3_region_num = 0x1

.data           0x0000000010000000       0x10 load address 0x0000000000011e50
                0x0000000010000000                __cs3_region_start_ram = .
                0x0000000010000000                _sdata = .
 *(.cs3.region-head.ram)
 *(.jcr)
 *(.got.plt)
 *(.got)
 *(.shdata)
 *(.data .data.* .gnu.linkonce.d.*)
 .data.SystemCoreClock
                0x0000000010000000        0x4 build/system_LPC17xx.o
                0x0000000010000000                SystemCoreClock
 .data.CDC_DepInEmpty
                0x0000000010000004        0x2 build/cdcuser.o
                0x0000000010000004                CDC_DepInEmpty
 .data.CDC_LineCoding
                0x0000000010000006        0x7 build/cdcuser.o
                0x0000000010000006                CDC_LineCoding
 *(.ram)
                0x0000000010000010                . = ALIGN (0x8)
 *fill*         0x000000001000000d        0x3 
                0x0000000010000010                _edata = .

.igot.plt       0x0000000010000010        0x0 load address 0x0000000000011e60
 .igot.plt      0x0000000010000010        0x0 build/py/mpstate.o

.bss            0x0000000010000010      0xc60 load address 0x0000000000011e60
                0x0000000010000010                _sbss = .
 *(.shbss)
 *(.bss .bss.* .gnu.linkonce.b.*)
 .bss.heap      0x0000000010000010      0x800 build/main.o
 .bss.stack_top
                0x0000000010000810        0x4 build/main.o
 .bss.serBuf.8253
                0x0000000010000814       0x20 build/mhalport.o
 .bss.pyexec_mode_kind
                0x0000000010000834        0x1 build/lib/utils/pyexec.o
                0x0000000010000834                pyexec_mode_kind
 *fill*         0x0000000010000835        0x3 
 .bss.pyexec_system_exit
                0x0000000010000838        0x4 build/lib/utils/pyexec.o
                0x0000000010000838                pyexec_system_exit
 .bss.rl        0x000000001000083c       0x1c build/lib/mp-readline/readline.o
 .bss.serialState.5435
                0x0000000010000858        0x2 build/usbuser.o
 .bss.CDC_SerialState
                0x000000001000085a        0x2 build/cdcuser.o
                0x000000001000085a                CDC_SerialState
 .bss.serBuf.6449
                0x000000001000085c       0x40 build/vcomdemo.o
 *(COMMON)
 COMMON         0x000000001000089c      0x1b4 build/py/mpstate.o
                0x000000001000089c                mp_state_ctx
 COMMON         0x0000000010000a50       0x32 build/usbcore.o
                0x0000000010000a50                USB_AltSetting
                0x0000000010000a54                EP0Buf
                0x0000000010000a5c                USB_EndPointMask
                0x0000000010000a60                USB_DeviceAddress
                0x0000000010000a64                USB_EndPointStall
                0x0000000010000a68                USB_EndPointHalt
                0x0000000010000a6c                USB_Configuration
                0x0000000010000a6d                SetupPacket
                0x0000000010000a75                USB_NumInterfaces
                0x0000000010000a78                EP0Data
                0x0000000010000a80                USB_DeviceStatus
 *fill*         0x0000000010000a82        0x2 
 COMMON         0x0000000010000a84       0xd4 build/cdcuser.o
                0x0000000010000a84                BulkBufOut
                0x0000000010000ac4                NotificationBuf
                0x0000000010000ace                BulkBufIn
                0x0000000010000b10                CDC_OutBuf
 COMMON         0x0000000010000b58      0x118 build/serial.o
                0x0000000010000b58                ser_in
                0x0000000010000be0                ser_txRestart
                0x0000000010000be4                ser_lineState
                0x0000000010000be8                ser_out
 *(.ram.b)
                0x0000000010000c70                . = ALIGN (0x8)
                0x0000000010000c70                _ebss = .
                0x0000000010000c70                _end = .
                0x0000000010000c70                __end = .

.heap           0x0000000010000c70      0x700 load address 0x0000000000011e60
 *(.heap)
 .heap          0x0000000010000c70      0x700 build/startup_LPC17xx.o
                0x0000000010000c70                __cs3_heap_start
                0x0000000010001370                __cs3_heap_end

.stack          0x0000000010007d00      0x300
 *(.stack)
 .stack         0x0000000010007d00      0x300 build/startup_LPC17xx.o
                0x0000000010007d00                __cs3_stack_mem

.ahb_bank0
 *(.ahb_sram_bank0 .ahb_sram_bank0.*)
                0x0000000000011e50                __cs3_region_init_ram = LOADADDR (.data)
                0x0000000000000010                __cs3_region_init_size_ram = (_edata - __cs3_region_start_ram)
                0x0000000000000c60                __cs3_region_zero_size_ram = (_end - _edata)
                0x0000000000008000                __cs3_region_size_ram = LENGTH (ram)
                0x0000000000000001                __cs3_region_num = 0x1

.stab
 *(.stab)

.stabstr
 *(.stabstr)

.debug
 *(.debug)

.line
 *(.line)

.debug_srcinfo
 *(.debug_srcinfo)

.debug_sfnames
 *(.debug_sfnames)

.debug_aranges  0x0000000000000000     0x2680
 *(.debug_aranges)
 .debug_aranges
                0x0000000000000000       0x18 build/py/mpstate.o
 .debug_aranges
                0x0000000000000018       0x28 build/py/nlr.o
 .debug_aranges
                0x0000000000000040       0x18 build/py/nlrx86.o
 .debug_aranges
                0x0000000000000058       0x18 build/py/nlrx64.o
 .debug_aranges
                0x0000000000000070       0x28 build/py/nlrthumb.o
 .debug_aranges
                0x0000000000000098       0x18 build/py/nlrpowerpc.o
 .debug_aranges
                0x00000000000000b0       0x18 build/py/nlrxtensa.o
 .debug_aranges
                0x00000000000000c8       0x18 build/py/nlrsetjmp.o
 .debug_aranges
                0x00000000000000e0       0x48 build/py/malloc.o
 .debug_aranges
                0x0000000000000128       0x98 build/py/gc.o
 .debug_aranges
                0x00000000000001c0       0x18 build/py/pystack.o
 .debug_aranges
                0x00000000000001d8       0x78 build/py/qstr.o
 .debug_aranges
                0x0000000000000250       0xd8 build/py/vstr.o
 .debug_aranges
                0x0000000000000328       0x50 build/py/mpprint.o
 .debug_aranges
                0x0000000000000378       0x70 build/py/unicode.o
 .debug_aranges
                0x00000000000003e8       0x18 build/py/mpz.o
 .debug_aranges
                0x0000000000000400       0x30 build/py/reader.o
 .debug_aranges
                0x0000000000000430       0x50 build/py/lexer.o
 .debug_aranges
                0x0000000000000480       0x88 build/py/parse.o
 .debug_aranges
                0x0000000000000508       0x48 build/py/scope.o
 .debug_aranges
                0x0000000000000550      0x260 build/py/compile.o
 .debug_aranges
                0x00000000000007b0       0x28 build/py/emitcommon.o
 .debug_aranges
                0x00000000000007d8      0x240 build/py/emitbc.o
 .debug_aranges
                0x0000000000000a18       0x18 build/py/asmbase.o
 .debug_aranges
                0x0000000000000a30       0x18 build/py/asmx64.o
 .debug_aranges
                0x0000000000000a48       0x18 build/py/emitnx64.o
 .debug_aranges
                0x0000000000000a60       0x18 build/py/asmx86.o
 .debug_aranges
                0x0000000000000a78       0x18 build/py/emitnx86.o
 .debug_aranges
                0x0000000000000a90       0x18 build/py/asmthumb.o
 .debug_aranges
                0x0000000000000aa8       0x18 build/py/emitnthumb.o
 .debug_aranges
                0x0000000000000ac0       0x18 build/py/emitinlinethumb.o
 .debug_aranges
                0x0000000000000ad8       0x18 build/py/asmarm.o
 .debug_aranges
                0x0000000000000af0       0x18 build/py/emitnarm.o
 .debug_aranges
                0x0000000000000b08       0x18 build/py/asmxtensa.o
 .debug_aranges
                0x0000000000000b20       0x18 build/py/emitnxtensa.o
 .debug_aranges
                0x0000000000000b38       0x18 build/py/emitinlinextensa.o
 .debug_aranges
                0x0000000000000b50       0x18 build/py/emitnxtensawin.o
 .debug_aranges
                0x0000000000000b68       0x18 build/py/formatfloat.o
 .debug_aranges
                0x0000000000000b80       0x20 build/py/parsenumbase.o
 .debug_aranges
                0x0000000000000ba0       0x30 build/py/parsenum.o
 .debug_aranges
                0x0000000000000bd0       0x38 build/py/emitglue.o
 .debug_aranges
                0x0000000000000c08       0x18 build/py/persistentcode.o
 .debug_aranges
                0x0000000000000c20      0x160 build/py/runtime.o
 .debug_aranges
                0x0000000000000d80       0x28 build/py/runtime_utils.o
 .debug_aranges
                0x0000000000000da8       0x20 build/py/scheduler.o
 .debug_aranges
                0x0000000000000dc8       0x18 build/py/nativeglue.o
 .debug_aranges
                0x0000000000000de0       0x30 build/py/pairheap.o
 .debug_aranges
                0x0000000000000e10       0x30 build/py/ringbuf.o
 .debug_aranges
                0x0000000000000e40       0x30 build/py/stackctrl.o
 .debug_aranges
                0x0000000000000e70       0x38 build/py/argcheck.o
 .debug_aranges
                0x0000000000000ea8       0x18 build/py/warning.o
 .debug_aranges
                0x0000000000000ec0       0x18 build/py/profile.o
 .debug_aranges
                0x0000000000000ed8       0x48 build/py/map.o
 .debug_aranges
                0x0000000000000f20       0xd8 build/py/obj.o
 .debug_aranges
                0x0000000000000ff8       0x18 build/py/objarray.o
 .debug_aranges
                0x0000000000001010       0x18 build/py/objattrtuple.o
 .debug_aranges
                0x0000000000001028       0x38 build/py/objbool.o
 .debug_aranges
                0x0000000000001060       0x30 build/py/objboundmeth.o
 .debug_aranges
                0x0000000000001090       0x30 build/py/objcell.o
 .debug_aranges
                0x00000000000010c0       0x28 build/py/objclosure.o
 .debug_aranges
                0x00000000000010e8       0x18 build/py/objcomplex.o
 .debug_aranges
                0x0000000000001100       0x18 build/py/objdeque.o
 .debug_aranges
                0x0000000000001118      0x100 build/py/objdict.o
 .debug_aranges
                0x0000000000001218       0x18 build/py/objenumerate.o
 .debug_aranges
                0x0000000000001230       0xa8 build/py/objexcept.o
 .debug_aranges
                0x00000000000012d8       0x18 build/py/objfilter.o
 .debug_aranges
                0x00000000000012f0       0x18 build/py/objfloat.o
 .debug_aranges
                0x0000000000001308       0x60 build/py/objfun.o
 .debug_aranges
                0x0000000000001368       0x60 build/py/objgenerator.o
 .debug_aranges
                0x00000000000013c8       0x28 build/py/objgetitemiter.o
 .debug_aranges
                0x00000000000013f0       0x98 build/py/objint.o
 .debug_aranges
                0x0000000000001488       0x18 build/py/objint_longlong.o
 .debug_aranges
                0x00000000000014a0       0x18 build/py/objint_mpz.o
 .debug_aranges
                0x00000000000014b8       0xe8 build/py/objlist.o
 .debug_aranges
                0x00000000000015a0       0x28 build/py/objmap.o
 .debug_aranges
                0x00000000000015c8       0x40 build/py/objmodule.o
 .debug_aranges
                0x0000000000001608       0x20 build/py/objobject.o
 .debug_aranges
                0x0000000000001628       0x20 build/py/objpolyiter.o
 .debug_aranges
                0x0000000000001648       0x18 build/py/objproperty.o
 .debug_aranges
                0x0000000000001660       0x20 build/py/objnone.o
 .debug_aranges
                0x0000000000001680       0x18 build/py/objnamedtuple.o
 .debug_aranges
                0x0000000000001698       0x58 build/py/objrange.o
 .debug_aranges
                0x00000000000016f0       0x18 build/py/objreversed.o
 .debug_aranges
                0x0000000000001708       0x18 build/py/objset.o
 .debug_aranges
                0x0000000000001720       0x20 build/py/objsingleton.o
 .debug_aranges
                0x0000000000001740       0x18 build/py/objslice.o
 .debug_aranges
                0x0000000000001758      0x1d0 build/py/objstr.o
 .debug_aranges
                0x0000000000001928       0x18 build/py/objstrunicode.o
 .debug_aranges
                0x0000000000001940       0x18 build/py/objstringio.o
 .debug_aranges
                0x0000000000001958       0x78 build/py/objtuple.o
 .debug_aranges
                0x00000000000019d0       0xf8 build/py/objtype.o
 .debug_aranges
                0x0000000000001ac8       0x28 build/py/objzip.o
 .debug_aranges
                0x0000000000001af0       0x38 build/py/opmethods.o
 .debug_aranges
                0x0000000000001b28       0x48 build/py/sequence.o
 .debug_aranges
                0x0000000000001b70       0xa8 build/py/stream.o
 .debug_aranges
                0x0000000000001c18       0x58 build/py/binary.o
 .debug_aranges
                0x0000000000001c70       0x40 build/py/builtinimport.o
 .debug_aranges
                0x0000000000001cb0       0x30 build/py/builtinevex.o
 .debug_aranges
                0x0000000000001ce0       0x18 build/py/builtinhelp.o
 .debug_aranges
                0x0000000000001cf8       0x18 build/py/modarray.o
 .debug_aranges
                0x0000000000001d10       0xf0 build/py/modbuiltins.o
 .debug_aranges
                0x0000000000001e00       0x18 build/py/modcollections.o
 .debug_aranges
                0x0000000000001e18       0x18 build/py/modgc.o
 .debug_aranges
                0x0000000000001e30       0x18 build/py/modio.o
 .debug_aranges
                0x0000000000001e48       0x18 build/py/modmath.o
 .debug_aranges
                0x0000000000001e60       0x18 build/py/modcmath.o
 .debug_aranges
                0x0000000000001e78       0x30 build/py/modmicropython.o
 .debug_aranges
                0x0000000000001ea8       0x18 build/py/modstruct.o
 .debug_aranges
                0x0000000000001ec0       0x18 build/py/modsys.o
 .debug_aranges
                0x0000000000001ed8       0x18 build/py/moduerrno.o
 .debug_aranges
                0x0000000000001ef0       0x18 build/py/modthread.o
 .debug_aranges
                0x0000000000001f08       0x20 build/py/vm.o
 .debug_aranges
                0x0000000000001f28       0x20 build/py/bc.o
 .debug_aranges
                0x0000000000001f48       0x18 build/py/showbc.o
 .debug_aranges
                0x0000000000001f60       0x30 build/py/repl.o
 .debug_aranges
                0x0000000000001f90       0x30 build/py/smallint.o
 .debug_aranges
                0x0000000000001fc0       0x28 build/py/frozenmod.o
 .debug_aranges
                0x0000000000001fe8       0x58 build/main.o
 .debug_aranges
                0x0000000000002040       0x28 build/mhalport.o
 .debug_aranges
                0x0000000000002068       0x50 build/lib/utils/printf.o
 .debug_aranges
                0x00000000000020b8       0x28 build/lib/utils/stdout_helpers.o
 .debug_aranges
                0x00000000000020e0       0x58 build/lib/utils/pyexec.o
 .debug_aranges
                0x0000000000002138       0x58 build/lib/mp-readline/readline.o
 .debug_aranges
                0x0000000000002190       0x18 build/build/_frozen_mpy.o
 .debug_aranges
                0x00000000000021a8       0x28 build/system_LPC17xx.o
 .debug_aranges
                0x00000000000021d0       0xc8 build/core_cm3.o
 .debug_aranges
                0x0000000000002298       0x90 build/usbcore.o
 .debug_aranges
                0x0000000000002328       0x18 build/usbdesc.o
 .debug_aranges
                0x0000000000002340       0xc8 build/usbhw.o
 .debug_aranges
                0x0000000000002408       0x40 build/usbuser.o
 .debug_aranges
                0x0000000000002448       0x78 build/cdcuser.o
 .debug_aranges
                0x00000000000024c0       0x68 build/serial.o
 .debug_aranges
                0x0000000000002528       0x30 build/led/lib_led.o
 .debug_aranges
                0x0000000000002558       0x30 build/led/funct_led.o
 .debug_aranges
                0x0000000000002588       0x30 build/delay.o
 .debug_aranges
                0x00000000000025b8       0x30 build/vcomdemo.o
 .debug_aranges
                0x00000000000025e8       0x98 build/lib/libc/string0.o

.debug_pubnames
 *(.debug_pubnames)

.debug_info     0x0000000000000000    0xf9542
 *(.debug_info .gnu.linkonce.wi.*)
 .debug_info    0x0000000000000000     0x1817 build/py/mpstate.o
 .debug_info    0x0000000000001817     0x1869 build/py/nlr.o
 .debug_info    0x0000000000003080     0x180a build/py/nlrx86.o
 .debug_info    0x000000000000488a     0x180a build/py/nlrx64.o
 .debug_info    0x0000000000006094     0x189c build/py/nlrthumb.o
 .debug_info    0x0000000000007930     0x180a build/py/nlrpowerpc.o
 .debug_info    0x000000000000913a     0x180a build/py/nlrxtensa.o
 .debug_info    0x000000000000a944     0x180a build/py/nlrsetjmp.o
 .debug_info    0x000000000000c14e     0x1a87 build/py/malloc.o
 .debug_info    0x000000000000dbd5     0x22ba build/py/gc.o
 .debug_info    0x000000000000fe8f     0x1830 build/py/pystack.o
 .debug_info    0x00000000000116bf     0x2487 build/py/qstr.o
 .debug_info    0x0000000000013b46     0x21f1 build/py/vstr.o
 .debug_info    0x0000000000015d37     0x2283 build/py/mpprint.o
 .debug_info    0x0000000000017fba      0xadd build/py/unicode.o
 .debug_info    0x0000000000018a97      0x8aa build/py/mpz.o
 .debug_info    0x0000000000019341     0x1a22 build/py/reader.o
 .debug_info    0x000000000001ad63     0x2d66 build/py/lexer.o
 .debug_info    0x000000000001dac9     0x4d05 build/py/parse.o
 .debug_info    0x00000000000227ce     0x2376 build/py/scope.o
 .debug_info    0x0000000000024b44     0x8a1e build/py/compile.o
 .debug_info    0x000000000002d562     0x24c8 build/py/emitcommon.o
 .debug_info    0x000000000002fa2a     0x4b47 build/py/emitbc.o
 .debug_info    0x0000000000034571     0x1431 build/py/asmbase.o
 .debug_info    0x00000000000359a2      0x877 build/py/asmx64.o
 .debug_info    0x0000000000036219      0x877 build/py/emitnx64.o
 .debug_info    0x0000000000036a90      0x877 build/py/asmx86.o
 .debug_info    0x0000000000037307     0x246f build/py/emitnx86.o
 .debug_info    0x0000000000039776      0x877 build/py/asmthumb.o
 .debug_info    0x0000000000039fed      0x877 build/py/emitnthumb.o
 .debug_info    0x000000000003a864     0x2370 build/py/emitinlinethumb.o
 .debug_info    0x000000000003cbd4      0x877 build/py/asmarm.o
 .debug_info    0x000000000003d44b      0x877 build/py/emitnarm.o
 .debug_info    0x000000000003dcc2      0x877 build/py/asmxtensa.o
 .debug_info    0x000000000003e539      0x877 build/py/emitnxtensa.o
 .debug_info    0x000000000003edb0     0x2370 build/py/emitinlinextensa.o
 .debug_info    0x0000000000041120      0x877 build/py/emitnxtensawin.o
 .debug_info    0x0000000000041997      0x877 build/py/formatfloat.o
 .debug_info    0x000000000004220e      0x959 build/py/parsenumbase.o
 .debug_info    0x0000000000042b67     0x246e build/py/parsenum.o
 .debug_info    0x0000000000044fd5     0x1a7d build/py/emitglue.o
 .debug_info    0x0000000000046a52     0x25dc build/py/persistentcode.o
 .debug_info    0x000000000004902e     0x5408 build/py/runtime.o
 .debug_info    0x000000000004e436     0x19cb build/py/runtime_utils.o
 .debug_info    0x000000000004fe01     0x188a build/py/scheduler.o
 .debug_info    0x000000000005168b     0x246f build/py/nativeglue.o
 .debug_info    0x0000000000053afa     0x16de build/py/pairheap.o
 .debug_info    0x00000000000551d8      0x1c4 build/py/ringbuf.o
 .debug_info    0x000000000005539c     0x18a8 build/py/stackctrl.o
 .debug_info    0x0000000000056c44     0x1c55 build/py/argcheck.o
 .debug_info    0x0000000000058899     0x2370 build/py/warning.o
 .debug_info    0x000000000005ac09     0x1830 build/py/profile.o
 .debug_info    0x000000000005c439     0x1c72 build/py/map.o
 .debug_info    0x000000000005e0ab     0x2ed1 build/py/obj.o
 .debug_info    0x0000000000060f7c     0x1a71 build/py/objarray.o
 .debug_info    0x00000000000629ed     0x1478 build/py/objattrtuple.o
 .debug_info    0x0000000000063e65     0x2075 build/py/objbool.o
 .debug_info    0x0000000000065eda     0x1f97 build/py/objboundmeth.o
 .debug_info    0x0000000000067e71     0x1a36 build/py/objcell.o
 .debug_info    0x00000000000698a7     0x1fdf build/py/objclosure.o
 .debug_info    0x000000000006b886     0x183b build/py/objcomplex.o
 .debug_info    0x000000000006d0c1      0x8bf build/py/objdeque.o
 .debug_info    0x000000000006d980     0x3c77 build/py/objdict.o
 .debug_info    0x00000000000715f7     0x183b build/py/objenumerate.o
 .debug_info    0x0000000000072e32     0x2dc4 build/py/objexcept.o
 .debug_info    0x0000000000075bf6     0x1830 build/py/objfilter.o
 .debug_info    0x0000000000077426     0x183b build/py/objfloat.o
 .debug_info    0x0000000000078c61     0x28a4 build/py/objfun.o
 .debug_info    0x000000000007b505     0x2909 build/py/objgenerator.o
 .debug_info    0x000000000007de0e     0x1efc build/py/objgetitemiter.o
 .debug_info    0x000000000007fd0a     0x2cb6 build/py/objint.o
 .debug_info    0x00000000000829c0     0x186f build/py/objint_longlong.o
 .debug_info    0x000000000008422f     0x1864 build/py/objint_mpz.o
 .debug_info    0x0000000000085a93     0x3271 build/py/objlist.o
 .debug_info    0x0000000000088d04     0x1fcd build/py/objmap.o
 .debug_info    0x000000000008acd1     0x2674 build/py/objmodule.o
 .debug_info    0x000000000008d345     0x1eab build/py/objobject.o
 .debug_info    0x000000000008f1f0     0x1dbe build/py/objpolyiter.o
 .debug_info    0x0000000000090fae     0x183b build/py/objproperty.o
 .debug_info    0x00000000000927e9     0x19ac build/py/objnone.o
 .debug_info    0x0000000000094195     0x1a71 build/py/objnamedtuple.o
 .debug_info    0x0000000000095c06     0x2424 build/py/objrange.o
 .debug_info    0x000000000009802a     0x183b build/py/objreversed.o
 .debug_info    0x0000000000099865     0x1cd8 build/py/objset.o
 .debug_info    0x000000000009b53d     0x19fe build/py/objsingleton.o
 .debug_info    0x000000000009cf3b     0x183b build/py/objslice.o
 .debug_info    0x000000000009e776     0x5dd0 build/py/objstr.o
 .debug_info    0x00000000000a4546     0x1a71 build/py/objstrunicode.o
 .debug_info    0x00000000000a5fb7     0x1b20 build/py/objstringio.o
 .debug_info    0x00000000000a7ad7     0x2a47 build/py/objtuple.o
 .debug_info    0x00000000000aa51e     0x3ec3 build/py/objtype.o
 .debug_info    0x00000000000ae3e1     0x1fbe build/py/objzip.o
 .debug_info    0x00000000000b039f     0x1b15 build/py/opmethods.o
 .debug_info    0x00000000000b1eb4     0x1d86 build/py/sequence.o
 .debug_info    0x00000000000b3c3a     0x2bf7 build/py/stream.o
 .debug_info    0x00000000000b6831     0x1e91 build/py/binary.o
 .debug_info    0x00000000000b86c2     0x34b2 build/py/builtinimport.o
 .debug_info    0x00000000000bbb74     0x2830 build/py/builtinevex.o
 .debug_info    0x00000000000be3a4     0x18fb build/py/builtinhelp.o
 .debug_info    0x00000000000bfc9f     0x18eb build/py/modarray.o
 .debug_info    0x00000000000c158a     0x390c build/py/modbuiltins.o
 .debug_info    0x00000000000c4e96     0x18eb build/py/modcollections.o
 .debug_info    0x00000000000c6781     0x180a build/py/modgc.o
 .debug_info    0x00000000000c7f8b     0x1d87 build/py/modio.o
 .debug_info    0x00000000000c9d12     0x1cd8 build/py/modmath.o
 .debug_info    0x00000000000cb9ea     0x18eb build/py/modcmath.o
 .debug_info    0x00000000000cd2d5     0x2374 build/py/modmicropython.o
 .debug_info    0x00000000000cf649     0x1cd8 build/py/modstruct.o
 .debug_info    0x00000000000d1321     0x1f28 build/py/modsys.o
 .debug_info    0x00000000000d3249     0x145c build/py/moduerrno.o
 .debug_info    0x00000000000d46a5     0x1830 build/py/modthread.o
 .debug_info    0x00000000000d5ed5     0x3149 build/py/vm.o
 .debug_info    0x00000000000d901e     0x1d7f build/py/bc.o
 .debug_info    0x00000000000dad9d     0x1830 build/py/showbc.o
 .debug_info    0x00000000000dc5cd     0x27b7 build/py/repl.o
 .debug_info    0x00000000000ded84      0x96f build/py/smallint.o
 .debug_info    0x00000000000df6f3     0x1b7e build/py/frozenmod.o
 .debug_info    0x00000000000e1271     0x299b build/main.o
 .debug_info    0x00000000000e3c0c     0x1cde build/mhalport.o
 .debug_info    0x00000000000e58ea     0x17a8 build/lib/utils/printf.o
 .debug_info    0x00000000000e7092     0x1543 build/lib/utils/stdout_helpers.o
 .debug_info    0x00000000000e85d5     0x2edf build/lib/utils/pyexec.o
 .debug_info    0x00000000000eb4b4     0x2068 build/lib/mp-readline/readline.o
 .debug_info    0x00000000000ed51c     0x2c76 build/build/_frozen_mpy.o
 .debug_info    0x00000000000f0192      0x2f1 build/system_LPC17xx.o
 .debug_info    0x00000000000f0483      0x53c build/core_cm3.o
 .debug_info    0x00000000000f09bf     0x150f build/usbcore.o
 .debug_info    0x00000000000f1ece      0x8e9 build/usbdesc.o
 .debug_info    0x00000000000f27b7     0x1c64 build/usbhw.o
 .debug_info    0x00000000000f441b      0xd4d build/usbuser.o
 .debug_info    0x00000000000f5168      0xf7f build/cdcuser.o
 .debug_info    0x00000000000f60e7      0xe58 build/serial.o
 .debug_info    0x00000000000f6f3f      0x53e build/led/lib_led.o
 .debug_info    0x00000000000f747d      0x44d build/led/funct_led.o
 .debug_info    0x00000000000f78ca       0xec build/delay.o
 .debug_info    0x00000000000f79b6      0xbee build/vcomdemo.o
 .debug_info    0x00000000000f85a4      0xf9e build/lib/libc/string0.o

.debug_abbrev   0x0000000000000000    0x18601
 *(.debug_abbrev)
 .debug_abbrev  0x0000000000000000      0x221 build/py/mpstate.o
 .debug_abbrev  0x0000000000000221      0x268 build/py/nlr.o
 .debug_abbrev  0x0000000000000489      0x214 build/py/nlrx86.o
 .debug_abbrev  0x000000000000069d      0x214 build/py/nlrx64.o
 .debug_abbrev  0x00000000000008b1      0x2a4 build/py/nlrthumb.o
 .debug_abbrev  0x0000000000000b55      0x214 build/py/nlrpowerpc.o
 .debug_abbrev  0x0000000000000d69      0x214 build/py/nlrxtensa.o
 .debug_abbrev  0x0000000000000f7d      0x214 build/py/nlrsetjmp.o
 .debug_abbrev  0x0000000000001191      0x339 build/py/malloc.o
 .debug_abbrev  0x00000000000014ca      0x4c9 build/py/gc.o
 .debug_abbrev  0x0000000000001993      0x219 build/py/pystack.o
 .debug_abbrev  0x0000000000001bac      0x501 build/py/qstr.o
 .debug_abbrev  0x00000000000020ad      0x3f1 build/py/vstr.o
 .debug_abbrev  0x000000000000249e      0x424 build/py/mpprint.o
 .debug_abbrev  0x00000000000028c2      0x200 build/py/unicode.o
 .debug_abbrev  0x0000000000002ac2      0x182 build/py/mpz.o
 .debug_abbrev  0x0000000000002c44      0x2e6 build/py/reader.o
 .debug_abbrev  0x0000000000002f2a      0x50d build/py/lexer.o
 .debug_abbrev  0x0000000000003437      0x52e build/py/parse.o
 .debug_abbrev  0x0000000000003965      0x3bf build/py/scope.o
 .debug_abbrev  0x0000000000003d24      0x57e build/py/compile.o
 .debug_abbrev  0x00000000000042a2      0x2d3 build/py/emitcommon.o
 .debug_abbrev  0x0000000000004575      0x558 build/py/emitbc.o
 .debug_abbrev  0x0000000000004acd      0x1f1 build/py/asmbase.o
 .debug_abbrev  0x0000000000004cbe      0x171 build/py/asmx64.o
 .debug_abbrev  0x0000000000004e2f      0x171 build/py/emitnx64.o
 .debug_abbrev  0x0000000000004fa0      0x171 build/py/asmx86.o
 .debug_abbrev  0x0000000000005111      0x236 build/py/emitnx86.o
 .debug_abbrev  0x0000000000005347      0x171 build/py/asmthumb.o
 .debug_abbrev  0x00000000000054b8      0x171 build/py/emitnthumb.o
 .debug_abbrev  0x0000000000005629      0x22a build/py/emitinlinethumb.o
 .debug_abbrev  0x0000000000005853      0x171 build/py/asmarm.o
 .debug_abbrev  0x00000000000059c4      0x171 build/py/emitnarm.o
 .debug_abbrev  0x0000000000005b35      0x171 build/py/asmxtensa.o
 .debug_abbrev  0x0000000000005ca6      0x171 build/py/emitnxtensa.o
 .debug_abbrev  0x0000000000005e17      0x22a build/py/emitinlinextensa.o
 .debug_abbrev  0x0000000000006041      0x171 build/py/emitnxtensawin.o
 .debug_abbrev  0x00000000000061b2      0x171 build/py/formatfloat.o
 .debug_abbrev  0x0000000000006323      0x1dc build/py/parsenumbase.o
 .debug_abbrev  0x00000000000064ff      0x35c build/py/parsenum.o
 .debug_abbrev  0x000000000000685b      0x301 build/py/emitglue.o
 .debug_abbrev  0x0000000000006b5c      0x236 build/py/persistentcode.o
 .debug_abbrev  0x0000000000006d92      0x666 build/py/runtime.o
 .debug_abbrev  0x00000000000073f8      0x2c6 build/py/runtime_utils.o
 .debug_abbrev  0x00000000000076be      0x27a build/py/scheduler.o
 .debug_abbrev  0x0000000000007938      0x236 build/py/nativeglue.o
 .debug_abbrev  0x0000000000007b6e      0x2e0 build/py/pairheap.o
 .debug_abbrev  0x0000000000007e4e      0x105 build/py/ringbuf.o
 .debug_abbrev  0x0000000000007f53      0x289 build/py/stackctrl.o
 .debug_abbrev  0x00000000000081dc      0x372 build/py/argcheck.o
 .debug_abbrev  0x000000000000854e      0x22a build/py/warning.o
 .debug_abbrev  0x0000000000008778      0x219 build/py/profile.o
 .debug_abbrev  0x0000000000008991      0x3ce build/py/map.o
 .debug_abbrev  0x0000000000008d5f      0x538 build/py/obj.o
 .debug_abbrev  0x0000000000009297      0x219 build/py/objarray.o
 .debug_abbrev  0x00000000000094b0      0x1f8 build/py/objattrtuple.o
 .debug_abbrev  0x00000000000096a8      0x372 build/py/objbool.o
 .debug_abbrev  0x0000000000009a1a      0x2ef build/py/objboundmeth.o
 .debug_abbrev  0x0000000000009d09      0x2bc build/py/objcell.o
 .debug_abbrev  0x0000000000009fc5      0x305 build/py/objclosure.o
 .debug_abbrev  0x000000000000a2ca      0x219 build/py/objcomplex.o
 .debug_abbrev  0x000000000000a4e3      0x182 build/py/objdeque.o
 .debug_abbrev  0x000000000000a665      0x5c0 build/py/objdict.o
 .debug_abbrev  0x000000000000ac25      0x219 build/py/objenumerate.o
 .debug_abbrev  0x000000000000ae3e      0x4eb build/py/objexcept.o
 .debug_abbrev  0x000000000000b329      0x219 build/py/objfilter.o
 .debug_abbrev  0x000000000000b542      0x219 build/py/objfloat.o
 .debug_abbrev  0x000000000000b75b      0x48f build/py/objfun.o
 .debug_abbrev  0x000000000000bbea      0x48d build/py/objgenerator.o
 .debug_abbrev  0x000000000000c077      0x343 build/py/objgetitemiter.o
 .debug_abbrev  0x000000000000c3ba      0x502 build/py/objint.o
 .debug_abbrev  0x000000000000c8bc      0x219 build/py/objint_longlong.o
 .debug_abbrev  0x000000000000cad5      0x219 build/py/objint_mpz.o
 .debug_abbrev  0x000000000000ccee      0x5b2 build/py/objlist.o
 .debug_abbrev  0x000000000000d2a0      0x2fa build/py/objmap.o
 .debug_abbrev  0x000000000000d59a      0x3c7 build/py/objmodule.o
 .debug_abbrev  0x000000000000d961      0x2c2 build/py/objobject.o
 .debug_abbrev  0x000000000000dc23      0x27a build/py/objpolyiter.o
 .debug_abbrev  0x000000000000de9d      0x219 build/py/objproperty.o
 .debug_abbrev  0x000000000000e0b6      0x254 build/py/objnone.o
 .debug_abbrev  0x000000000000e30a      0x219 build/py/objnamedtuple.o
 .debug_abbrev  0x000000000000e523      0x43b build/py/objrange.o
 .debug_abbrev  0x000000000000e95e      0x219 build/py/objreversed.o
 .debug_abbrev  0x000000000000eb77      0x219 build/py/objset.o
 .debug_abbrev  0x000000000000ed90      0x274 build/py/objsingleton.o
 .debug_abbrev  0x000000000000f004      0x219 build/py/objslice.o
 .debug_abbrev  0x000000000000f21d      0x60b build/py/objstr.o
 .debug_abbrev  0x000000000000f828      0x219 build/py/objstrunicode.o
 .debug_abbrev  0x000000000000fa41      0x219 build/py/objstringio.o
 .debug_abbrev  0x000000000000fc5a      0x4f1 build/py/objtuple.o
 .debug_abbrev  0x000000000001014b      0x5d0 build/py/objtype.o
 .debug_abbrev  0x000000000001071b      0x2ff build/py/objzip.o
 .debug_abbrev  0x0000000000010a1a      0x275 build/py/opmethods.o
 .debug_abbrev  0x0000000000010c8f      0x34d build/py/sequence.o
 .debug_abbrev  0x0000000000010fdc      0x504 build/py/stream.o
 .debug_abbrev  0x00000000000114e0      0x3d4 build/py/binary.o
 .debug_abbrev  0x00000000000118b4      0x4ff build/py/builtinimport.o
 .debug_abbrev  0x0000000000011db3      0x33d build/py/builtinevex.o
 .debug_abbrev  0x00000000000120f0      0x1f6 build/py/builtinhelp.o
 .debug_abbrev  0x00000000000122e6      0x1f6 build/py/modarray.o
 .debug_abbrev  0x00000000000124dc      0x531 build/py/modbuiltins.o
 .debug_abbrev  0x0000000000012a0d      0x1f6 build/py/modcollections.o
 .debug_abbrev  0x0000000000012c03      0x214 build/py/modgc.o
 .debug_abbrev  0x0000000000012e17      0x219 build/py/modio.o
 .debug_abbrev  0x0000000000013030      0x219 build/py/modmath.o
 .debug_abbrev  0x0000000000013249      0x1f6 build/py/modcmath.o
 .debug_abbrev  0x000000000001343f      0x2c4 build/py/modmicropython.o
 .debug_abbrev  0x0000000000013703      0x219 build/py/modstruct.o
 .debug_abbrev  0x000000000001391c      0x219 build/py/modsys.o
 .debug_abbrev  0x0000000000013b35      0x1f6 build/py/moduerrno.o
 .debug_abbrev  0x0000000000013d2b      0x219 build/py/modthread.o
 .debug_abbrev  0x0000000000013f44      0x40c build/py/vm.o
 .debug_abbrev  0x0000000000014350      0x395 build/py/bc.o
 .debug_abbrev  0x00000000000146e5      0x219 build/py/showbc.o
 .debug_abbrev  0x00000000000148fe      0x311 build/py/repl.o
 .debug_abbrev  0x0000000000014c0f      0x1e9 build/py/smallint.o
 .debug_abbrev  0x0000000000014df8      0x323 build/py/frozenmod.o
 .debug_abbrev  0x000000000001511b      0x3b8 build/main.o
 .debug_abbrev  0x00000000000154d3      0x30a build/mhalport.o
 .debug_abbrev  0x00000000000157dd      0x2e5 build/lib/utils/printf.o
 .debug_abbrev  0x0000000000015ac2      0x261 build/lib/utils/stdout_helpers.o
 .debug_abbrev  0x0000000000015d23      0x49f build/lib/utils/pyexec.o
 .debug_abbrev  0x00000000000161c2      0x499 build/lib/mp-readline/readline.o
 .debug_abbrev  0x000000000001665b      0x256 build/build/_frozen_mpy.o
 .debug_abbrev  0x00000000000168b1       0xd8 build/system_LPC17xx.o
 .debug_abbrev  0x0000000000016989       0xcc build/core_cm3.o
 .debug_abbrev  0x0000000000016a55      0x3b5 build/usbcore.o
 .debug_abbrev  0x0000000000016e0a      0x19f build/usbdesc.o
 .debug_abbrev  0x0000000000016fa9      0x464 build/usbhw.o
 .debug_abbrev  0x000000000001740d      0x2f7 build/usbuser.o
 .debug_abbrev  0x0000000000017704      0x3c5 build/cdcuser.o
 .debug_abbrev  0x0000000000017ac9      0x326 build/serial.o
 .debug_abbrev  0x0000000000017def       0xe1 build/led/lib_led.o
 .debug_abbrev  0x0000000000017ed0      0x153 build/led/funct_led.o
 .debug_abbrev  0x0000000000018023       0x9c build/delay.o
 .debug_abbrev  0x00000000000180bf      0x267 build/vcomdemo.o
 .debug_abbrev  0x0000000000018326      0x2db build/lib/libc/string0.o

.debug_line     0x0000000000000000    0x146d8
 *(.debug_line)
 .debug_line    0x0000000000000000      0x16a build/py/mpstate.o
 .debug_line    0x000000000000016a      0x188 build/py/nlr.o
 .debug_line    0x00000000000002f2      0x15d build/py/nlrx86.o
 .debug_line    0x000000000000044f      0x15d build/py/nlrx64.o
 .debug_line    0x00000000000005ac      0x1a0 build/py/nlrthumb.o
 .debug_line    0x000000000000074c      0x15d build/py/nlrpowerpc.o
 .debug_line    0x00000000000008a9      0x15d build/py/nlrxtensa.o
 .debug_line    0x0000000000000a06      0x15d build/py/nlrsetjmp.o
 .debug_line    0x0000000000000b63      0x20c build/py/malloc.o
 .debug_line    0x0000000000000d6f      0x610 build/py/gc.o
 .debug_line    0x000000000000137f      0x16a build/py/pystack.o
 .debug_line    0x00000000000014e9      0x38f build/py/qstr.o
 .debug_line    0x0000000000001878      0x3b8 build/py/vstr.o
 .debug_line    0x0000000000001c30      0x3f4 build/py/mpprint.o
 .debug_line    0x0000000000002024      0x1dd build/py/unicode.o
 .debug_line    0x0000000000002201       0xef build/py/mpz.o
 .debug_line    0x00000000000022f0      0x1d4 build/py/reader.o
 .debug_line    0x00000000000024c4      0x53b build/py/lexer.o
 .debug_line    0x00000000000029ff      0x595 build/py/parse.o
 .debug_line    0x0000000000002f94      0x25f build/py/scope.o
 .debug_line    0x00000000000031f3     0x124e build/py/compile.o
 .debug_line    0x0000000000004441      0x1f2 build/py/emitcommon.o
 .debug_line    0x0000000000004633      0x849 build/py/emitbc.o
 .debug_line    0x0000000000004e7c      0x11d build/py/asmbase.o
 .debug_line    0x0000000000004f99       0x8b build/py/asmx64.o
 .debug_line    0x0000000000005024       0x8b build/py/emitnx64.o
 .debug_line    0x00000000000050af       0x8b build/py/asmx86.o
 .debug_line    0x000000000000513a      0x1cd build/py/emitnx86.o
 .debug_line    0x0000000000005307       0x8b build/py/asmthumb.o
 .debug_line    0x0000000000005392       0x8b build/py/emitnthumb.o
 .debug_line    0x000000000000541d      0x1a3 build/py/emitinlinethumb.o
 .debug_line    0x00000000000055c0       0x8b build/py/asmarm.o
 .debug_line    0x000000000000564b       0x8b build/py/emitnarm.o
 .debug_line    0x00000000000056d6       0x8b build/py/asmxtensa.o
 .debug_line    0x0000000000005761       0x8b build/py/emitnxtensa.o
 .debug_line    0x00000000000057ec      0x1a3 build/py/emitinlinextensa.o
 .debug_line    0x000000000000598f       0x8b build/py/emitnxtensawin.o
 .debug_line    0x0000000000005a1a       0x8b build/py/formatfloat.o
 .debug_line    0x0000000000005aa5      0x14d build/py/parsenumbase.o
 .debug_line    0x0000000000005bf2      0x25f build/py/parsenum.o
 .debug_line    0x0000000000005e51      0x1e5 build/py/emitglue.o
 .debug_line    0x0000000000006036      0x1d9 build/py/persistentcode.o
 .debug_line    0x000000000000620f      0x9a7 build/py/runtime.o
 .debug_line    0x0000000000006bb6      0x1ad build/py/runtime_utils.o
 .debug_line    0x0000000000006d63      0x18f build/py/scheduler.o
 .debug_line    0x0000000000006ef2      0x1cd build/py/nativeglue.o
 .debug_line    0x00000000000070bf      0x1c9 build/py/pairheap.o
 .debug_line    0x0000000000007288       0xec build/py/ringbuf.o
 .debug_line    0x0000000000007374      0x1ad build/py/stackctrl.o
 .debug_line    0x0000000000007521      0x21f build/py/argcheck.o
 .debug_line    0x0000000000007740      0x1a3 build/py/warning.o
 .debug_line    0x00000000000078e3      0x16a build/py/profile.o
 .debug_line    0x0000000000007a4d      0x2d8 build/py/map.o
 .debug_line    0x0000000000007d25      0x4c8 build/py/obj.o
 .debug_line    0x00000000000081ed      0x176 build/py/objarray.o
 .debug_line    0x0000000000008363      0x12b build/py/objattrtuple.o
 .debug_line    0x000000000000848e      0x200 build/py/objbool.o
 .debug_line    0x000000000000868e      0x1c9 build/py/objboundmeth.o
 .debug_line    0x0000000000008857      0x15f build/py/objcell.o
 .debug_line    0x00000000000089b6      0x1b8 build/py/objclosure.o
 .debug_line    0x0000000000008b6e      0x18a build/py/objcomplex.o
 .debug_line    0x0000000000008cf8       0x97 build/py/objdeque.o
 .debug_line    0x0000000000008d8f      0x50d build/py/objdict.o
 .debug_line    0x000000000000929c      0x18a build/py/objenumerate.o
 .debug_line    0x0000000000009426      0x41a build/py/objexcept.o
 .debug_line    0x0000000000009840      0x16a build/py/objfilter.o
 .debug_line    0x00000000000099aa      0x18a build/py/objfloat.o
 .debug_line    0x0000000000009b34      0x307 build/py/objfun.o
 .debug_line    0x0000000000009e3b      0x34c build/py/objgenerator.o
 .debug_line    0x000000000000a187      0x1dd build/py/objgetitemiter.o
 .debug_line    0x000000000000a364      0x416 build/py/objint.o
 .debug_line    0x000000000000a77a      0x196 build/py/objint_longlong.o
 .debug_line    0x000000000000a910      0x176 build/py/objint_mpz.o
 .debug_line    0x000000000000aa86      0x54b build/py/objlist.o
 .debug_line    0x000000000000afd1      0x202 build/py/objmap.o
 .debug_line    0x000000000000b1d3      0x23b build/py/objmodule.o
 .debug_line    0x000000000000b40e      0x1b5 build/py/objobject.o
 .debug_line    0x000000000000b5c3      0x1ab build/py/objpolyiter.o
 .debug_line    0x000000000000b76e      0x18a build/py/objproperty.o
 .debug_line    0x000000000000b8f8      0x15a build/py/objnone.o
 .debug_line    0x000000000000ba52      0x176 build/py/objnamedtuple.o
 .debug_line    0x000000000000bbc8      0x2a6 build/py/objrange.o
 .debug_line    0x000000000000be6e      0x18a build/py/objreversed.o
 .debug_line    0x000000000000bff8      0x177 build/py/objset.o
 .debug_line    0x000000000000c16f      0x15f build/py/objsingleton.o
 .debug_line    0x000000000000c2ce      0x18a build/py/objslice.o
 .debug_line    0x000000000000c458      0xe47 build/py/objstr.o
 .debug_line    0x000000000000d29f      0x176 build/py/objstrunicode.o
 .debug_line    0x000000000000d415      0x18d build/py/objstringio.o
 .debug_line    0x000000000000d5a2      0x2fd build/py/objtuple.o
 .debug_line    0x000000000000d89f      0x75d build/py/objtype.o
 .debug_line    0x000000000000dffc      0x200 build/py/objzip.o
 .debug_line    0x000000000000e1fc      0x189 build/py/opmethods.o
 .debug_line    0x000000000000e385      0x2b8 build/py/sequence.o
 .debug_line    0x000000000000e63d      0x469 build/py/stream.o
 .debug_line    0x000000000000eaa6      0x2e8 build/py/binary.o
 .debug_line    0x000000000000ed8e      0x407 build/py/builtinimport.o
 .debug_line    0x000000000000f195      0x211 build/py/builtinevex.o
 .debug_line    0x000000000000f3a6      0x139 build/py/builtinhelp.o
 .debug_line    0x000000000000f4df      0x12a build/py/modarray.o
 .debug_line    0x000000000000f609      0x4b4 build/py/modbuiltins.o
 .debug_line    0x000000000000fabd      0x12a build/py/modcollections.o
 .debug_line    0x000000000000fbe7      0x15d build/py/modgc.o
 .debug_line    0x000000000000fd44      0x18e build/py/modio.o
 .debug_line    0x000000000000fed2      0x177 build/py/modmath.o
 .debug_line    0x0000000000010049      0x12a build/py/modcmath.o
 .debug_line    0x0000000000010173      0x1cb build/py/modmicropython.o
 .debug_line    0x000000000001033e      0x177 build/py/modstruct.o
 .debug_line    0x00000000000104b5      0x1a6 build/py/modsys.o
 .debug_line    0x000000000001065b      0x128 build/py/moduerrno.o
 .debug_line    0x0000000000010783      0x16a build/py/modthread.o
 .debug_line    0x00000000000108ed      0x7ba build/py/vm.o
 .debug_line    0x00000000000110a7      0x2cb build/py/bc.o
 .debug_line    0x0000000000011372      0x16a build/py/showbc.o
 .debug_line    0x00000000000114dc      0x365 build/py/repl.o
 .debug_line    0x0000000000011841      0x162 build/py/smallint.o
 .debug_line    0x00000000000119a3      0x209 build/py/frozenmod.o
 .debug_line    0x0000000000011bac      0x31a build/main.o
 .debug_line    0x0000000000011ec6      0x224 build/mhalport.o
 .debug_line    0x00000000000120ea      0x210 build/lib/utils/printf.o
 .debug_line    0x00000000000122fa      0x1a0 build/lib/utils/stdout_helpers.o
 .debug_line    0x000000000001249a      0x455 build/lib/utils/pyexec.o
 .debug_line    0x00000000000128ef      0x402 build/lib/mp-readline/readline.o
 .debug_line    0x0000000000012cf1      0x1fc build/build/_frozen_mpy.o
 .debug_line    0x0000000000012eed      0x150 build/system_LPC17xx.o
 .debug_line    0x000000000001303d      0x210 build/core_cm3.o
 .debug_line    0x000000000001324d      0x3c7 build/usbcore.o
 .debug_line    0x0000000000013614       0xe2 build/usbdesc.o
 .debug_line    0x00000000000136f6      0x399 build/usbhw.o
 .debug_line    0x0000000000013a8f      0x160 build/usbuser.o
 .debug_line    0x0000000000013bef      0x252 build/cdcuser.o
 .debug_line    0x0000000000013e41      0x205 build/serial.o
 .debug_line    0x0000000000014046       0xe7 build/led/lib_led.o
 .debug_line    0x000000000001412d       0xf4 build/led/funct_led.o
 .debug_line    0x0000000000014221       0x98 build/delay.o
 .debug_line    0x00000000000142b9      0x16a build/vcomdemo.o
 .debug_line    0x0000000000014423      0x2b5 build/lib/libc/string0.o

.debug_frame    0x0000000000000000     0x60ac
 *(.debug_frame)
 .debug_frame   0x0000000000000000       0x30 build/py/nlr.o
 .debug_frame   0x0000000000000030       0x38 build/py/nlrthumb.o
 .debug_frame   0x0000000000000068       0x80 build/py/malloc.o
 .debug_frame   0x00000000000000e8      0x218 build/py/gc.o
 .debug_frame   0x0000000000000300      0x14c build/py/qstr.o
 .debug_frame   0x000000000000044c      0x278 build/py/vstr.o
 .debug_frame   0x00000000000006c4      0x120 build/py/mpprint.o
 .debug_frame   0x00000000000007e4       0xd0 build/py/unicode.o
 .debug_frame   0x00000000000008b4       0x5c build/py/reader.o
 .debug_frame   0x0000000000000910       0xe0 build/py/lexer.o
 .debug_frame   0x00000000000009f0      0x190 build/py/parse.o
 .debug_frame   0x0000000000000b80       0xb4 build/py/scope.o
 .debug_frame   0x0000000000000c34      0xb5c build/py/compile.o
 .debug_frame   0x0000000000001790       0x54 build/py/emitcommon.o
 .debug_frame   0x00000000000017e4      0x668 build/py/emitbc.o
 .debug_frame   0x0000000000001e4c       0x28 build/py/parsenumbase.o
 .debug_frame   0x0000000000001e74       0x68 build/py/parsenum.o
 .debug_frame   0x0000000000001edc       0x80 build/py/emitglue.o
 .debug_frame   0x0000000000001f5c      0x4dc build/py/runtime.o
 .debug_frame   0x0000000000002438       0x58 build/py/runtime_utils.o
 .debug_frame   0x0000000000002490       0x28 build/py/scheduler.o
 .debug_frame   0x00000000000024b8       0x78 build/py/pairheap.o
 .debug_frame   0x0000000000002530       0x5c build/py/ringbuf.o
 .debug_frame   0x000000000000258c       0x50 build/py/stackctrl.o
 .debug_frame   0x00000000000025dc       0x90 build/py/argcheck.o
 .debug_frame   0x000000000000266c       0xc0 build/py/map.o
 .debug_frame   0x000000000000272c      0x288 build/py/obj.o
 .debug_frame   0x00000000000029b4       0x5c build/py/objbool.o
 .debug_frame   0x0000000000002a10       0x74 build/py/objboundmeth.o
 .debug_frame   0x0000000000002a84       0x48 build/py/objcell.o
 .debug_frame   0x0000000000002acc       0x60 build/py/objclosure.o
 .debug_frame   0x0000000000002b2c      0x314 build/py/objdict.o
 .debug_frame   0x0000000000002e40      0x23c build/py/objexcept.o
 .debug_frame   0x000000000000307c      0x138 build/py/objfun.o
 .debug_frame   0x00000000000031b4      0x108 build/py/objgenerator.o
 .debug_frame   0x00000000000032bc       0x44 build/py/objgetitemiter.o
 .debug_frame   0x0000000000003300      0x1dc build/py/objint.o
 .debug_frame   0x00000000000034dc      0x2d8 build/py/objlist.o
 .debug_frame   0x00000000000037b4       0x5c build/py/objmap.o
 .debug_frame   0x0000000000003810       0x94 build/py/objmodule.o
 .debug_frame   0x00000000000038a4       0x28 build/py/objobject.o
 .debug_frame   0x00000000000038cc       0x20 build/py/objpolyiter.o
 .debug_frame   0x00000000000038ec       0x20 build/py/objnone.o
 .debug_frame   0x000000000000390c       0xdc build/py/objrange.o
 .debug_frame   0x00000000000039e8       0x20 build/py/objsingleton.o
 .debug_frame   0x0000000000003a08      0x654 build/py/objstr.o
 .debug_frame   0x000000000000405c      0x144 build/py/objtuple.o
 .debug_frame   0x00000000000041a0      0x3e8 build/py/objtype.o
 .debug_frame   0x0000000000004588       0x54 build/py/objzip.o
 .debug_frame   0x00000000000045dc       0xa0 build/py/opmethods.o
 .debug_frame   0x000000000000467c       0xdc build/py/sequence.o
 .debug_frame   0x0000000000004758      0x218 build/py/stream.o
 .debug_frame   0x0000000000004970      0x100 build/py/binary.o
 .debug_frame   0x0000000000004a70       0xbc build/py/builtinimport.o
 .debug_frame   0x0000000000004b2c       0x54 build/py/builtinevex.o
 .debug_frame   0x0000000000004b80      0x2e8 build/py/modbuiltins.o
 .debug_frame   0x0000000000004e68       0x58 build/py/modmicropython.o
 .debug_frame   0x0000000000004ec0       0x48 build/py/vm.o
 .debug_frame   0x0000000000004f08       0x40 build/py/bc.o
 .debug_frame   0x0000000000004f48       0x78 build/py/repl.o
 .debug_frame   0x0000000000004fc0       0x40 build/py/smallint.o
 .debug_frame   0x0000000000005000       0x54 build/py/frozenmod.o
 .debug_frame   0x0000000000005054       0xbc build/main.o
 .debug_frame   0x0000000000005110       0x4c build/mhalport.o
 .debug_frame   0x000000000000515c       0xe8 build/lib/utils/printf.o
 .debug_frame   0x0000000000005244       0x4c build/lib/utils/stdout_helpers.o
 .debug_frame   0x0000000000005290      0x120 build/lib/utils/pyexec.o
 .debug_frame   0x00000000000053b0       0xf4 build/lib/mp-readline/readline.o
 .debug_frame   0x00000000000054a4       0x38 build/system_LPC17xx.o
 .debug_frame   0x00000000000054dc      0x170 build/core_cm3.o
 .debug_frame   0x000000000000564c      0x19c build/usbcore.o
 .debug_frame   0x00000000000057e8      0x248 build/usbhw.o
 .debug_frame   0x0000000000005a30      0x130 build/usbuser.o
 .debug_frame   0x0000000000005b60      0x168 build/cdcuser.o
 .debug_frame   0x0000000000005cc8       0xf8 build/serial.o
 .debug_frame   0x0000000000005dc0       0x40 build/led/lib_led.o
 .debug_frame   0x0000000000005e00       0x4c build/led/funct_led.o
 .debug_frame   0x0000000000005e4c       0x68 build/delay.o
 .debug_frame   0x0000000000005eb4       0x58 build/vcomdemo.o
 .debug_frame   0x0000000000005f0c      0x1a0 build/lib/libc/string0.o

.debug_str      0x0000000000000000     0xf2eb
 *(.debug_str)
 .debug_str     0x0000000000000000     0x14ee build/py/mpstate.o
                                       0x17bf (size before relaxing)
 .debug_str     0x00000000000014ee       0x25 build/py/nlr.o
                                       0x17d1 (size before relaxing)
 .debug_str     0x0000000000001513       0x8c build/py/nlrx86.o
                                       0x17c2 (size before relaxing)
 .debug_str     0x000000000000159f       0x12 build/py/nlrx64.o
                                       0x17c2 (size before relaxing)
 .debug_str     0x00000000000015b1       0x3d build/py/nlrthumb.o
                                       0x17ed (size before relaxing)
 .debug_str     0x00000000000015ee       0x16 build/py/nlrpowerpc.o
                                       0x17c6 (size before relaxing)
 .debug_str     0x0000000000001604       0x15 build/py/nlrxtensa.o
                                       0x17c5 (size before relaxing)
 .debug_str     0x0000000000001619       0x15 build/py/nlrsetjmp.o
                                       0x17c5 (size before relaxing)
 .debug_str     0x000000000000162e       0xa3 build/py/malloc.o
                                       0x1860 (size before relaxing)
 .debug_str     0x00000000000016d1      0x2f8 build/py/gc.o
                                       0x1aae (size before relaxing)
 .debug_str     0x00000000000019c9       0x13 build/py/pystack.o
                                       0x17f0 (size before relaxing)
 .debug_str     0x00000000000019dc      0xf9f build/py/qstr.o
                                       0x27f0 (size before relaxing)
 .debug_str     0x000000000000297b      0x1d8 build/py/vstr.o
                                       0x1a27 (size before relaxing)
 .debug_str     0x0000000000002b53      0x1b7 build/py/mpprint.o
                                       0x1a23 (size before relaxing)
 .debug_str     0x0000000000002d0a       0xc9 build/py/unicode.o
                                        0x631 (size before relaxing)
 .debug_str     0x0000000000002dd3        0xf build/py/mpz.o
                                        0x553 (size before relaxing)
 .debug_str     0x0000000000002de2       0x94 build/py/reader.o
                                       0x18ac (size before relaxing)
 .debug_str     0x0000000000002e76      0xa88 build/py/lexer.o
                                       0x243b (size before relaxing)
 .debug_str     0x00000000000038fe     0x34c1 build/py/parse.o
                                       0x6516 (size before relaxing)
 .debug_str     0x0000000000006dbf      0x2bf build/py/scope.o
                                       0x2972 (size before relaxing)
 .debug_str     0x000000000000707e     0x1ff9 build/py/compile.o
                                       0x557c (size before relaxing)
 .debug_str     0x0000000000009077       0x28 build/py/emitcommon.o
                                       0x2724 (size before relaxing)
 .debug_str     0x000000000000909f      0x3eb build/py/emitbc.o
                                       0x3e21 (size before relaxing)
 .debug_str     0x000000000000948a       0x13 build/py/asmbase.o
                                       0x14a6 (size before relaxing)
 .debug_str     0x000000000000949d       0x12 build/py/asmx64.o
                                        0x520 (size before relaxing)
 .debug_str     0x00000000000094af       0x14 build/py/emitnx64.o
                                        0x522 (size before relaxing)
 .debug_str     0x00000000000094c3       0x12 build/py/asmx86.o
                                        0x520 (size before relaxing)
 .debug_str     0x00000000000094d5      0x27c build/py/emitnx86.o
                                       0x1f35 (size before relaxing)
 .debug_str     0x0000000000009751       0x14 build/py/asmthumb.o
                                        0x522 (size before relaxing)
 .debug_str     0x0000000000009765       0x16 build/py/emitnthumb.o
                                        0x524 (size before relaxing)
 .debug_str     0x000000000000977b       0x1b build/py/emitinlinethumb.o
                                       0x2628 (size before relaxing)
 .debug_str     0x0000000000009796       0x12 build/py/asmarm.o
                                        0x520 (size before relaxing)
 .debug_str     0x00000000000097a8       0x14 build/py/emitnarm.o
                                        0x522 (size before relaxing)
 .debug_str     0x00000000000097bc       0x15 build/py/asmxtensa.o
                                        0x523 (size before relaxing)
 .debug_str     0x00000000000097d1       0x17 build/py/emitnxtensa.o
                                        0x525 (size before relaxing)
 .debug_str     0x00000000000097e8       0x1c build/py/emitinlinextensa.o
                                       0x2629 (size before relaxing)
 .debug_str     0x0000000000009804       0x1a build/py/emitnxtensawin.o
                                        0x528 (size before relaxing)
 .debug_str     0x000000000000981e       0x17 build/py/formatfloat.o
                                        0x525 (size before relaxing)
 .debug_str     0x0000000000009835       0x34 build/py/parsenumbase.o
                                        0x596 (size before relaxing)
 .debug_str     0x0000000000009869       0xa9 build/py/parsenum.o
                                       0x2fa7 (size before relaxing)
 .debug_str     0x0000000000009912       0xd3 build/py/emitglue.o
                                       0x197a (size before relaxing)
 .debug_str     0x00000000000099e5       0x1a build/py/persistentcode.o
                                       0x20f2 (size before relaxing)
 .debug_str     0x00000000000099ff      0x945 build/py/runtime.o
                                       0x434b (size before relaxing)
 .debug_str     0x000000000000a344       0x6a build/py/runtime_utils.o
                                       0x1888 (size before relaxing)
 .debug_str     0x000000000000a3ae       0x27 build/py/scheduler.o
                                       0x1817 (size before relaxing)
 .debug_str     0x000000000000a3d5       0x16 build/py/nativeglue.o
                                       0x1f37 (size before relaxing)
 .debug_str     0x000000000000a3eb       0x8e build/py/pairheap.o
                                       0x1539 (size before relaxing)
 .debug_str     0x000000000000a479       0x68 build/py/ringbuf.o
                                        0x1dc (size before relaxing)
 .debug_str     0x000000000000a4e1       0x54 build/py/stackctrl.o
                                       0x1831 (size before relaxing)
 .debug_str     0x000000000000a535      0x18a build/py/argcheck.o
                                       0x1ac3 (size before relaxing)
 .debug_str     0x000000000000a6bf       0x13 build/py/warning.o
                                       0x2620 (size before relaxing)
 .debug_str     0x000000000000a6d2       0x13 build/py/profile.o
                                       0x17f0 (size before relaxing)
 .debug_str     0x000000000000a6e5       0xce build/py/map.o
                                       0x1a02 (size before relaxing)
 .debug_str     0x000000000000a7b3      0x22d build/py/obj.o
                                       0x2d28 (size before relaxing)
 .debug_str     0x000000000000a9e0       0x14 build/py/objarray.o
                                       0x1a08 (size before relaxing)
 .debug_str     0x000000000000a9f4       0x18 build/py/objattrtuple.o
                                       0x14c3 (size before relaxing)
 .debug_str     0x000000000000aa0c       0x70 build/py/objbool.o
                                       0x26ea (size before relaxing)
 .debug_str     0x000000000000aa7c       0x7c build/py/objboundmeth.o
                                       0x26cb (size before relaxing)
 .debug_str     0x000000000000aaf8       0x5f build/py/objcell.o
                                       0x22fe (size before relaxing)
 .debug_str     0x000000000000ab57       0x4b build/py/objclosure.o
                                       0x269d (size before relaxing)
 .debug_str     0x000000000000aba2       0x16 build/py/objcomplex.o
                                       0x17fd (size before relaxing)
 .debug_str     0x000000000000abb8       0x14 build/py/objdeque.o
                                        0x54f (size before relaxing)
 .debug_str     0x000000000000abcc      0x34d build/py/objdict.o
                                       0x352a (size before relaxing)
 .debug_str     0x000000000000af19       0x18 build/py/objenumerate.o
                                       0x17ff (size before relaxing)
 .debug_str     0x000000000000af31      0x19d build/py/objexcept.o
                                       0x2c5e (size before relaxing)
 .debug_str     0x000000000000b0ce       0x15 build/py/objfilter.o
                                       0x17f2 (size before relaxing)
 .debug_str     0x000000000000b0e3       0x14 build/py/objfloat.o
                                       0x17fb (size before relaxing)
 .debug_str     0x000000000000b0f7      0x12b build/py/objfun.o
                                       0x29a4 (size before relaxing)
 .debug_str     0x000000000000b222      0x185 build/py/objgenerator.o
                                       0x2c7e (size before relaxing)
 .debug_str     0x000000000000b3a7       0x31 build/py/objgetitemiter.o
                                       0x2686 (size before relaxing)
 .debug_str     0x000000000000b3d8      0x1d1 build/py/objint.o
                                       0x2d17 (size before relaxing)
 .debug_str     0x000000000000b5a9       0x1b build/py/objint_longlong.o
                                       0x1830 (size before relaxing)
 .debug_str     0x000000000000b5c4       0x16 build/py/objint_mpz.o
                                       0x1821 (size before relaxing)
 .debug_str     0x000000000000b5da      0x2c0 build/py/objlist.o
                                       0x2be6 (size before relaxing)
 .debug_str     0x000000000000b89a       0x4a build/py/objmap.o
                                       0x26e0 (size before relaxing)
 .debug_str     0x000000000000b8e4       0xaf build/py/objmodule.o
                                       0x2edc (size before relaxing)
 .debug_str     0x000000000000b993       0x36 build/py/objobject.o
                                       0x2683 (size before relaxing)
 .debug_str     0x000000000000b9c9       0x46 build/py/objpolyiter.o
                                       0x263a (size before relaxing)
 .debug_str     0x000000000000ba0f       0x17 build/py/objproperty.o
                                       0x17fe (size before relaxing)
 .debug_str     0x000000000000ba26       0x1e build/py/objnone.o
                                       0x22bd (size before relaxing)
 .debug_str     0x000000000000ba44       0x19 build/py/objnamedtuple.o
                                       0x1a0d (size before relaxing)
 .debug_str     0x000000000000ba5d       0xcb build/py/objrange.o
                                       0x2805 (size before relaxing)
 .debug_str     0x000000000000bb28       0x17 build/py/objreversed.o
                                       0x17fe (size before relaxing)
 .debug_str     0x000000000000bb3f       0x12 build/py/objset.o
                                       0x1ec7 (size before relaxing)
 .debug_str     0x000000000000bb51       0x3a build/py/objsingleton.o
                                       0x22ee (size before relaxing)
 .debug_str     0x000000000000bb8b       0x14 build/py/objslice.o
                                       0x17fb (size before relaxing)
 .debug_str     0x000000000000bb9f      0x5fb build/py/objstr.o
                                       0x3414 (size before relaxing)
 .debug_str     0x000000000000c19a       0x19 build/py/objstrunicode.o
                                       0x1a0d (size before relaxing)
 .debug_str     0x000000000000c1b3       0x17 build/py/objstringio.o
                                       0x1b30 (size before relaxing)
 .debug_str     0x000000000000c1ca      0x168 build/py/objtuple.o
                                       0x29ca (size before relaxing)
 .debug_str     0x000000000000c332      0x350 build/py/objtype.o
                                       0x2e0b (size before relaxing)
 .debug_str     0x000000000000c682       0x3a build/py/objzip.o
                                       0x26e3 (size before relaxing)
 .debug_str     0x000000000000c6bc       0x52 build/py/opmethods.o
                                       0x1bf1 (size before relaxing)
 .debug_str     0x000000000000c70e       0x84 build/py/sequence.o
                                       0x197d (size before relaxing)
 .debug_str     0x000000000000c792      0x1f1 build/py/stream.o
                                       0x1f4a (size before relaxing)
 .debug_str     0x000000000000c983       0xe7 build/py/binary.o
                                       0x1a16 (size before relaxing)
 .debug_str     0x000000000000ca6a      0x263 build/py/builtinimport.o
                                       0x3b76 (size before relaxing)
 .debug_str     0x000000000000cccd       0x48 build/py/builtinevex.o
                                       0x3656 (size before relaxing)
 .debug_str     0x000000000000cd15       0x17 build/py/builtinhelp.o
                                       0x1ba6 (size before relaxing)
 .debug_str     0x000000000000cd2c       0x14 build/py/modarray.o
                                       0x1b8d (size before relaxing)
 .debug_str     0x000000000000cd40      0x294 build/py/modbuiltins.o
                                       0x36d3 (size before relaxing)
 .debug_str     0x000000000000cfd4       0x1a build/py/modcollections.o
                                       0x1b93 (size before relaxing)
 .debug_str     0x000000000000cfee       0x11 build/py/modgc.o
                                       0x17bd (size before relaxing)
 .debug_str     0x000000000000cfff       0x11 build/py/modio.o
                                       0x1feb (size before relaxing)
 .debug_str     0x000000000000d010       0x13 build/py/modmath.o
                                       0x1ec8 (size before relaxing)
 .debug_str     0x000000000000d023       0x14 build/py/modcmath.o
                                       0x1b8d (size before relaxing)
 .debug_str     0x000000000000d037      0x102 build/py/modmicropython.o
                                       0x2e08 (size before relaxing)
 .debug_str     0x000000000000d139       0x15 build/py/modstruct.o
                                       0x1eca (size before relaxing)
 .debug_str     0x000000000000d14e       0x12 build/py/modsys.o
                                       0x21d1 (size before relaxing)
 .debug_str     0x000000000000d160       0x15 build/py/moduerrno.o
                                       0x14bf (size before relaxing)
 .debug_str     0x000000000000d175       0x15 build/py/modthread.o
                                       0x17f2 (size before relaxing)
 .debug_str     0x000000000000d18a      0x13e build/py/vm.o
                                       0x2c52 (size before relaxing)
 .debug_str     0x000000000000d2c8       0x89 build/py/bc.o
                                       0x1af2 (size before relaxing)
 .debug_str     0x000000000000d351       0x12 build/py/showbc.o
                                       0x17ef (size before relaxing)
 .debug_str     0x000000000000d363       0xe3 build/py/repl.o
                                       0x2e31 (size before relaxing)
 .debug_str     0x000000000000d446       0x2b build/py/smallint.o
                                        0x5d4 (size before relaxing)
 .debug_str     0x000000000000d471       0x68 build/py/frozenmod.o
                                       0x1946 (size before relaxing)
 .debug_str     0x000000000000d4d9      0x24e build/main.o
                                       0x338f (size before relaxing)
 .debug_str     0x000000000000d727       0xa0 build/mhalport.o
                                       0x1b80 (size before relaxing)
 .debug_str     0x000000000000d7c7       0x61 build/lib/utils/printf.o
                                       0x1585 (size before relaxing)
 .debug_str     0x000000000000d828       0x36 build/lib/utils/stdout_helpers.o
                                       0x1530 (size before relaxing)
 .debug_str     0x000000000000d85e      0x156 build/lib/utils/pyexec.o
                                       0x3393 (size before relaxing)
 .debug_str     0x000000000000d9b4      0x24c build/lib/mp-readline/readline.o
                                       0x1b5a (size before relaxing)
 .debug_str     0x000000000000dc00      0x127 build/build/_frozen_mpy.o
                                       0x30f1 (size before relaxing)
 .debug_str     0x000000000000dd27      0x158 build/system_LPC17xx.o
                                        0x2c8 (size before relaxing)
 .debug_str     0x000000000000de7f      0x14b build/core_cm3.o
                                        0x2cd (size before relaxing)
 .debug_str     0x000000000000dfca      0x4a8 build/usbcore.o
                                        0xbae (size before relaxing)
 .debug_str     0x000000000000e472        0xa build/usbdesc.o
                                        0x569 (size before relaxing)
 .debug_str     0x000000000000e47c      0x792 build/usbhw.o
                                       0x109c (size before relaxing)
 .debug_str     0x000000000000ec0e      0x12b build/usbuser.o
                                        0x7f2 (size before relaxing)
 .debug_str     0x000000000000ed39      0x1a5 build/cdcuser.o
                                        0x99b (size before relaxing)
 .debug_str     0x000000000000eede      0x12e build/serial.o
                                        0x7cb (size before relaxing)
 .debug_str     0x000000000000f00c      0x15a build/led/lib_led.o
                                        0x404 (size before relaxing)
 .debug_str     0x000000000000f166       0x30 build/led/funct_led.o
                                        0x300 (size before relaxing)
 .debug_str     0x000000000000f196       0x24 build/delay.o
                                         0xde (size before relaxing)
 .debug_str     0x000000000000f1ba       0x21 build/vcomdemo.o
                                        0x75d (size before relaxing)
 .debug_str     0x000000000000f1db      0x110 build/lib/libc/string0.o
                                        0x622 (size before relaxing)

.debug_loc      0x0000000000000000    0x25658
 *(.debug_loc)
 .debug_loc     0x0000000000000000       0x1f build/py/nlr.o
 .debug_loc     0x000000000000001f       0x6b build/py/nlrthumb.o
 .debug_loc     0x000000000000008a      0x172 build/py/malloc.o
 .debug_loc     0x00000000000001fc      0xda0 build/py/gc.o
 .debug_loc     0x0000000000000f9c      0x69f build/py/qstr.o
 .debug_loc     0x000000000000163b      0x7a7 build/py/vstr.o
 .debug_loc     0x0000000000001de2     0x10d6 build/py/mpprint.o
 .debug_loc     0x0000000000002eb8      0x1d9 build/py/unicode.o
 .debug_loc     0x0000000000003091      0x15c build/py/reader.o
 .debug_loc     0x00000000000031ed      0xc1b build/py/lexer.o
 .debug_loc     0x0000000000003e08     0x10dd build/py/parse.o
 .debug_loc     0x0000000000004ee5      0x2f1 build/py/scope.o
 .debug_loc     0x00000000000051d6     0x5757 build/py/compile.o
 .debug_loc     0x000000000000a92d      0x179 build/py/emitcommon.o
 .debug_loc     0x000000000000aaa6     0x23dc build/py/emitbc.o
 .debug_loc     0x000000000000ce82      0x16d build/py/parsenumbase.o
 .debug_loc     0x000000000000cfef      0x36d build/py/parsenum.o
 .debug_loc     0x000000000000d35c      0x123 build/py/emitglue.o
 .debug_loc     0x000000000000d47f     0x22dc build/py/runtime.o
 .debug_loc     0x000000000000f75b      0x120 build/py/runtime_utils.o
 .debug_loc     0x000000000000f87b       0x3f build/py/scheduler.o
 .debug_loc     0x000000000000f8ba      0x3c1 build/py/pairheap.o
 .debug_loc     0x000000000000fc7b       0xb8 build/py/ringbuf.o
 .debug_loc     0x000000000000fd33      0x290 build/py/argcheck.o
 .debug_loc     0x000000000000ffc3      0x397 build/py/map.o
 .debug_loc     0x000000000001035a      0xd0a build/py/obj.o
 .debug_loc     0x0000000000011064      0x348 build/py/objbool.o
 .debug_loc     0x00000000000113ac      0x26d build/py/objboundmeth.o
 .debug_loc     0x0000000000011619       0x6c build/py/objcell.o
 .debug_loc     0x0000000000011685      0x21c build/py/objclosure.o
 .debug_loc     0x00000000000118a1     0x113d build/py/objdict.o
 .debug_loc     0x00000000000129de      0xabb build/py/objexcept.o
 .debug_loc     0x0000000000013499      0xab5 build/py/objfun.o
 .debug_loc     0x0000000000013f4e      0x613 build/py/objgenerator.o
 .debug_loc     0x0000000000014561       0xac build/py/objgetitemiter.o
 .debug_loc     0x000000000001460d      0xc04 build/py/objint.o
 .debug_loc     0x0000000000015211     0x10b1 build/py/objlist.o
 .debug_loc     0x00000000000162c2      0x276 build/py/objmap.o
 .debug_loc     0x0000000000016538      0x336 build/py/objmodule.o
 .debug_loc     0x000000000001686e      0x103 build/py/objobject.o
 .debug_loc     0x0000000000016971       0x42 build/py/objpolyiter.o
 .debug_loc     0x00000000000169b3       0x63 build/py/objnone.o
 .debug_loc     0x0000000000016a16      0x616 build/py/objrange.o
 .debug_loc     0x000000000001702c       0x84 build/py/objsingleton.o
 .debug_loc     0x00000000000170b0     0x36ac build/py/objstr.o
 .debug_loc     0x000000000001a75c      0xbaf build/py/objtuple.o
 .debug_loc     0x000000000001b30b     0x19f7 build/py/objtype.o
 .debug_loc     0x000000000001cd02      0x1eb build/py/objzip.o
 .debug_loc     0x000000000001ceed      0x23b build/py/opmethods.o
 .debug_loc     0x000000000001d128      0x6db build/py/sequence.o
 .debug_loc     0x000000000001d803      0xaf9 build/py/stream.o
 .debug_loc     0x000000000001e2fc      0x80d build/py/binary.o
 .debug_loc     0x000000000001eb09      0x886 build/py/builtinimport.o
 .debug_loc     0x000000000001f38f      0x17b build/py/builtinevex.o
 .debug_loc     0x000000000001f50a      0xa38 build/py/modbuiltins.o
 .debug_loc     0x000000000001ff42       0x9d build/py/modmicropython.o
 .debug_loc     0x000000000001ffdf     0x17e2 build/py/vm.o
 .debug_loc     0x00000000000217c1      0x693 build/py/bc.o
 .debug_loc     0x0000000000021e54      0x6b8 build/py/repl.o
 .debug_loc     0x000000000002250c       0xea build/py/smallint.o
 .debug_loc     0x00000000000225f6      0x227 build/py/frozenmod.o
 .debug_loc     0x000000000002281d      0x141 build/main.o
 .debug_loc     0x000000000002295e       0x42 build/mhalport.o
 .debug_loc     0x00000000000229a0      0x1b2 build/lib/utils/printf.o
 .debug_loc     0x0000000000022b52       0xd6 build/lib/utils/stdout_helpers.o
 .debug_loc     0x0000000000022c28      0x78b build/lib/utils/pyexec.o
 .debug_loc     0x00000000000233b3      0x78c build/lib/mp-readline/readline.o
 .debug_loc     0x0000000000023b3f      0x2fc build/core_cm3.o
 .debug_loc     0x0000000000023e3b      0x38a build/usbcore.o
 .debug_loc     0x00000000000241c5      0x39c build/usbhw.o
 .debug_loc     0x0000000000024561       0x82 build/usbuser.o
 .debug_loc     0x00000000000245e3      0x13a build/cdcuser.o
 .debug_loc     0x000000000002471d      0x47b build/serial.o
 .debug_loc     0x0000000000024b98       0x48 build/led/funct_led.o
 .debug_loc     0x0000000000024be0       0x3c build/delay.o
 .debug_loc     0x0000000000024c1c       0x3c build/vcomdemo.o
 .debug_loc     0x0000000000024c58      0xa00 build/lib/libc/string0.o

.comment        0x0000000000000000       0x31
 .comment       0x0000000000000000       0x31 build/py/mpstate.o
                                         0x32 (size before relaxing)
 .comment       0x0000000000000031       0x32 build/py/nlr.o
 .comment       0x0000000000000031       0x32 build/py/nlrx86.o
 .comment       0x0000000000000031       0x32 build/py/nlrx64.o
 .comment       0x0000000000000031       0x32 build/py/nlrthumb.o
 .comment       0x0000000000000031       0x32 build/py/nlrpowerpc.o
 .comment       0x0000000000000031       0x32 build/py/nlrxtensa.o
 .comment       0x0000000000000031       0x32 build/py/nlrsetjmp.o
 .comment       0x0000000000000031       0x32 build/py/malloc.o
 .comment       0x0000000000000031       0x32 build/py/gc.o
 .comment       0x0000000000000031       0x32 build/py/pystack.o
 .comment       0x0000000000000031       0x32 build/py/qstr.o
 .comment       0x0000000000000031       0x32 build/py/vstr.o
 .comment       0x0000000000000031       0x32 build/py/mpprint.o
 .comment       0x0000000000000031       0x32 build/py/unicode.o
 .comment       0x0000000000000031       0x32 build/py/mpz.o
 .comment       0x0000000000000031       0x32 build/py/reader.o
 .comment       0x0000000000000031       0x32 build/py/lexer.o
 .comment       0x0000000000000031       0x32 build/py/parse.o
 .comment       0x0000000000000031       0x32 build/py/scope.o
 .comment       0x0000000000000031       0x32 build/py/compile.o
 .comment       0x0000000000000031       0x32 build/py/emitcommon.o
 .comment       0x0000000000000031       0x32 build/py/emitbc.o
 .comment       0x0000000000000031       0x32 build/py/asmbase.o
 .comment       0x0000000000000031       0x32 build/py/asmx64.o
 .comment       0x0000000000000031       0x32 build/py/emitnx64.o
 .comment       0x0000000000000031       0x32 build/py/asmx86.o
 .comment       0x0000000000000031       0x32 build/py/emitnx86.o
 .comment       0x0000000000000031       0x32 build/py/asmthumb.o
 .comment       0x0000000000000031       0x32 build/py/emitnthumb.o
 .comment       0x0000000000000031       0x32 build/py/emitinlinethumb.o
 .comment       0x0000000000000031       0x32 build/py/asmarm.o
 .comment       0x0000000000000031       0x32 build/py/emitnarm.o
 .comment       0x0000000000000031       0x32 build/py/asmxtensa.o
 .comment       0x0000000000000031       0x32 build/py/emitnxtensa.o
 .comment       0x0000000000000031       0x32 build/py/emitinlinextensa.o
 .comment       0x0000000000000031       0x32 build/py/emitnxtensawin.o
 .comment       0x0000000000000031       0x32 build/py/formatfloat.o
 .comment       0x0000000000000031       0x32 build/py/parsenumbase.o
 .comment       0x0000000000000031       0x32 build/py/parsenum.o
 .comment       0x0000000000000031       0x32 build/py/emitglue.o
 .comment       0x0000000000000031       0x32 build/py/persistentcode.o
 .comment       0x0000000000000031       0x32 build/py/runtime.o
 .comment       0x0000000000000031       0x32 build/py/runtime_utils.o
 .comment       0x0000000000000031       0x32 build/py/scheduler.o
 .comment       0x0000000000000031       0x32 build/py/nativeglue.o
 .comment       0x0000000000000031       0x32 build/py/pairheap.o
 .comment       0x0000000000000031       0x32 build/py/ringbuf.o
 .comment       0x0000000000000031       0x32 build/py/stackctrl.o
 .comment       0x0000000000000031       0x32 build/py/argcheck.o
 .comment       0x0000000000000031       0x32 build/py/warning.o
 .comment       0x0000000000000031       0x32 build/py/profile.o
 .comment       0x0000000000000031       0x32 build/py/map.o
 .comment       0x0000000000000031       0x32 build/py/obj.o
 .comment       0x0000000000000031       0x32 build/py/objarray.o
 .comment       0x0000000000000031       0x32 build/py/objattrtuple.o
 .comment       0x0000000000000031       0x32 build/py/objbool.o
 .comment       0x0000000000000031       0x32 build/py/objboundmeth.o
 .comment       0x0000000000000031       0x32 build/py/objcell.o
 .comment       0x0000000000000031       0x32 build/py/objclosure.o
 .comment       0x0000000000000031       0x32 build/py/objcomplex.o
 .comment       0x0000000000000031       0x32 build/py/objdeque.o
 .comment       0x0000000000000031       0x32 build/py/objdict.o
 .comment       0x0000000000000031       0x32 build/py/objenumerate.o
 .comment       0x0000000000000031       0x32 build/py/objexcept.o
 .comment       0x0000000000000031       0x32 build/py/objfilter.o
 .comment       0x0000000000000031       0x32 build/py/objfloat.o
 .comment       0x0000000000000031       0x32 build/py/objfun.o
 .comment       0x0000000000000031       0x32 build/py/objgenerator.o
 .comment       0x0000000000000031       0x32 build/py/objgetitemiter.o
 .comment       0x0000000000000031       0x32 build/py/objint.o
 .comment       0x0000000000000031       0x32 build/py/objint_longlong.o
 .comment       0x0000000000000031       0x32 build/py/objint_mpz.o
 .comment       0x0000000000000031       0x32 build/py/objlist.o
 .comment       0x0000000000000031       0x32 build/py/objmap.o
 .comment       0x0000000000000031       0x32 build/py/objmodule.o
 .comment       0x0000000000000031       0x32 build/py/objobject.o
 .comment       0x0000000000000031       0x32 build/py/objpolyiter.o
 .comment       0x0000000000000031       0x32 build/py/objproperty.o
 .comment       0x0000000000000031       0x32 build/py/objnone.o
 .comment       0x0000000000000031       0x32 build/py/objnamedtuple.o
 .comment       0x0000000000000031       0x32 build/py/objrange.o
 .comment       0x0000000000000031       0x32 build/py/objreversed.o
 .comment       0x0000000000000031       0x32 build/py/objset.o
 .comment       0x0000000000000031       0x32 build/py/objsingleton.o
 .comment       0x0000000000000031       0x32 build/py/objslice.o
 .comment       0x0000000000000031       0x32 build/py/objstr.o
 .comment       0x0000000000000031       0x32 build/py/objstrunicode.o
 .comment       0x0000000000000031       0x32 build/py/objstringio.o
 .comment       0x0000000000000031       0x32 build/py/objtuple.o
 .comment       0x0000000000000031       0x32 build/py/objtype.o
 .comment       0x0000000000000031       0x32 build/py/objzip.o
 .comment       0x0000000000000031       0x32 build/py/opmethods.o
 .comment       0x0000000000000031       0x32 build/py/sequence.o
 .comment       0x0000000000000031       0x32 build/py/stream.o
 .comment       0x0000000000000031       0x32 build/py/binary.o
 .comment       0x0000000000000031       0x32 build/py/builtinimport.o
 .comment       0x0000000000000031       0x32 build/py/builtinevex.o
 .comment       0x0000000000000031       0x32 build/py/builtinhelp.o
 .comment       0x0000000000000031       0x32 build/py/modarray.o
 .comment       0x0000000000000031       0x32 build/py/modbuiltins.o
 .comment       0x0000000000000031       0x32 build/py/modcollections.o
 .comment       0x0000000000000031       0x32 build/py/modgc.o
 .comment       0x0000000000000031       0x32 build/py/modio.o
 .comment       0x0000000000000031       0x32 build/py/modmath.o
 .comment       0x0000000000000031       0x32 build/py/modcmath.o
 .comment       0x0000000000000031       0x32 build/py/modmicropython.o
 .comment       0x0000000000000031       0x32 build/py/modstruct.o
 .comment       0x0000000000000031       0x32 build/py/modsys.o
 .comment       0x0000000000000031       0x32 build/py/moduerrno.o
 .comment       0x0000000000000031       0x32 build/py/modthread.o
 .comment       0x0000000000000031       0x32 build/py/vm.o
 .comment       0x0000000000000031       0x32 build/py/bc.o
 .comment       0x0000000000000031       0x32 build/py/showbc.o
 .comment       0x0000000000000031       0x32 build/py/repl.o
 .comment       0x0000000000000031       0x32 build/py/smallint.o
 .comment       0x0000000000000031       0x32 build/py/frozenmod.o
 .comment       0x0000000000000031       0x32 build/main.o
 .comment       0x0000000000000031       0x32 build/mhalport.o
 .comment       0x0000000000000031       0x32 build/lib/utils/printf.o
 .comment       0x0000000000000031       0x32 build/lib/utils/stdout_helpers.o
 .comment       0x0000000000000031       0x32 build/lib/utils/pyexec.o
 .comment       0x0000000000000031       0x32 build/lib/mp-readline/readline.o
 .comment       0x0000000000000031       0x32 build/build/_frozen_mpy.o
 .comment       0x0000000000000031       0x32 build/system_LPC17xx.o
 .comment       0x0000000000000031       0x32 build/core_cm3.o
 .comment       0x0000000000000031       0x32 build/usbcore.o
 .comment       0x0000000000000031       0x32 build/usbdesc.o
 .comment       0x0000000000000031       0x32 build/usbhw.o
 .comment       0x0000000000000031       0x32 build/usbuser.o
 .comment       0x0000000000000031       0x32 build/cdcuser.o
 .comment       0x0000000000000031       0x32 build/serial.o
 .comment       0x0000000000000031       0x32 build/led/lib_led.o
 .comment       0x0000000000000031       0x32 build/led/funct_led.o
 .comment       0x0000000000000031       0x32 build/delay.o
 .comment       0x0000000000000031       0x32 build/vcomdemo.o
 .comment       0x0000000000000031       0x32 build/lib/libc/string0.o

.debug_macinfo
 *(.debug_macinfo)

.debug_weaknames
 *(.debug_weaknames)

.debug_funcnames
 *(.debug_funcnames)

.debug_typenames
 *(.debug_typenames)

.debug_varnames
 *(.debug_varnames)

.note.gnu.arm.ident
 *(.note.gnu.arm.ident)

.ARM.attributes
                0x0000000000000000       0x31
 *(.ARM.attributes)
 .ARM.attributes
                0x0000000000000000       0x33 build/py/mpstate.o
 .ARM.attributes
                0x0000000000000033       0x33 build/py/nlr.o
 .ARM.attributes
                0x0000000000000066       0x33 build/py/nlrx86.o
 .ARM.attributes
                0x0000000000000099       0x33 build/py/nlrx64.o
 .ARM.attributes
                0x00000000000000cc       0x33 build/py/nlrthumb.o
 .ARM.attributes
                0x00000000000000ff       0x33 build/py/nlrpowerpc.o
 .ARM.attributes
                0x0000000000000132       0x33 build/py/nlrxtensa.o
 .ARM.attributes
                0x0000000000000165       0x33 build/py/nlrsetjmp.o
 .ARM.attributes
                0x0000000000000198       0x33 build/py/malloc.o
 .ARM.attributes
                0x00000000000001cb       0x33 build/py/gc.o
 .ARM.attributes
                0x00000000000001fe       0x33 build/py/pystack.o
 .ARM.attributes
                0x0000000000000231       0x33 build/py/qstr.o
 .ARM.attributes
                0x0000000000000264       0x33 build/py/vstr.o
 .ARM.attributes
                0x0000000000000297       0x33 build/py/mpprint.o
 .ARM.attributes
                0x00000000000002ca       0x33 build/py/unicode.o
 .ARM.attributes
                0x00000000000002fd       0x33 build/py/mpz.o
 .ARM.attributes
                0x0000000000000330       0x33 build/py/reader.o
 .ARM.attributes
                0x0000000000000363       0x33 build/py/lexer.o
 .ARM.attributes
                0x0000000000000396       0x33 build/py/parse.o
 .ARM.attributes
                0x00000000000003c9       0x33 build/py/scope.o
 .ARM.attributes
                0x00000000000003fc       0x33 build/py/compile.o
 .ARM.attributes
                0x000000000000042f       0x33 build/py/emitcommon.o
 .ARM.attributes
                0x0000000000000462       0x33 build/py/emitbc.o
 .ARM.attributes
                0x0000000000000495       0x33 build/py/asmbase.o
 .ARM.attributes
                0x00000000000004c8       0x33 build/py/asmx64.o
 .ARM.attributes
                0x00000000000004fb       0x33 build/py/emitnx64.o
 .ARM.attributes
                0x000000000000052e       0x33 build/py/asmx86.o
 .ARM.attributes
                0x0000000000000561       0x33 build/py/emitnx86.o
 .ARM.attributes
                0x0000000000000594       0x33 build/py/asmthumb.o
 .ARM.attributes
                0x00000000000005c7       0x33 build/py/emitnthumb.o
 .ARM.attributes
                0x00000000000005fa       0x33 build/py/emitinlinethumb.o
 .ARM.attributes
                0x000000000000062d       0x33 build/py/asmarm.o
 .ARM.attributes
                0x0000000000000660       0x33 build/py/emitnarm.o
 .ARM.attributes
                0x0000000000000693       0x33 build/py/asmxtensa.o
 .ARM.attributes
                0x00000000000006c6       0x33 build/py/emitnxtensa.o
 .ARM.attributes
                0x00000000000006f9       0x33 build/py/emitinlinextensa.o
 .ARM.attributes
                0x000000000000072c       0x33 build/py/emitnxtensawin.o
 .ARM.attributes
                0x000000000000075f       0x33 build/py/formatfloat.o
 .ARM.attributes
                0x0000000000000792       0x33 build/py/parsenumbase.o
 .ARM.attributes
                0x00000000000007c5       0x33 build/py/parsenum.o
 .ARM.attributes
                0x00000000000007f8       0x33 build/py/emitglue.o
 .ARM.attributes
                0x000000000000082b       0x33 build/py/persistentcode.o
 .ARM.attributes
                0x000000000000085e       0x33 build/py/runtime.o
 .ARM.attributes
                0x0000000000000891       0x33 build/py/runtime_utils.o
 .ARM.attributes
                0x00000000000008c4       0x33 build/py/scheduler.o
 .ARM.attributes
                0x00000000000008f7       0x33 build/py/nativeglue.o
 .ARM.attributes
                0x000000000000092a       0x33 build/py/pairheap.o
 .ARM.attributes
                0x000000000000095d       0x33 build/py/ringbuf.o
 .ARM.attributes
                0x0000000000000990       0x33 build/py/stackctrl.o
 .ARM.attributes
                0x00000000000009c3       0x33 build/py/argcheck.o
 .ARM.attributes
                0x00000000000009f6       0x33 build/py/warning.o
 .ARM.attributes
                0x0000000000000a29       0x33 build/py/profile.o
 .ARM.attributes
                0x0000000000000a5c       0x33 build/py/map.o
 .ARM.attributes
                0x0000000000000a8f       0x33 build/py/obj.o
 .ARM.attributes
                0x0000000000000ac2       0x33 build/py/objarray.o
 .ARM.attributes
                0x0000000000000af5       0x33 build/py/objattrtuple.o
 .ARM.attributes
                0x0000000000000b28       0x33 build/py/objbool.o
 .ARM.attributes
                0x0000000000000b5b       0x33 build/py/objboundmeth.o
 .ARM.attributes
                0x0000000000000b8e       0x33 build/py/objcell.o
 .ARM.attributes
                0x0000000000000bc1       0x33 build/py/objclosure.o
 .ARM.attributes
                0x0000000000000bf4       0x33 build/py/objcomplex.o
 .ARM.attributes
                0x0000000000000c27       0x33 build/py/objdeque.o
 .ARM.attributes
                0x0000000000000c5a       0x33 build/py/objdict.o
 .ARM.attributes
                0x0000000000000c8d       0x33 build/py/objenumerate.o
 .ARM.attributes
                0x0000000000000cc0       0x33 build/py/objexcept.o
 .ARM.attributes
                0x0000000000000cf3       0x33 build/py/objfilter.o
 .ARM.attributes
                0x0000000000000d26       0x33 build/py/objfloat.o
 .ARM.attributes
                0x0000000000000d59       0x33 build/py/objfun.o
 .ARM.attributes
                0x0000000000000d8c       0x33 build/py/objgenerator.o
 .ARM.attributes
                0x0000000000000dbf       0x33 build/py/objgetitemiter.o
 .ARM.attributes
                0x0000000000000df2       0x33 build/py/objint.o
 .ARM.attributes
                0x0000000000000e25       0x33 build/py/objint_longlong.o
 .ARM.attributes
                0x0000000000000e58       0x33 build/py/objint_mpz.o
 .ARM.attributes
                0x0000000000000e8b       0x33 build/py/objlist.o
 .ARM.attributes
                0x0000000000000ebe       0x33 build/py/objmap.o
 .ARM.attributes
                0x0000000000000ef1       0x33 build/py/objmodule.o
 .ARM.attributes
                0x0000000000000f24       0x33 build/py/objobject.o
 .ARM.attributes
                0x0000000000000f57       0x33 build/py/objpolyiter.o
 .ARM.attributes
                0x0000000000000f8a       0x33 build/py/objproperty.o
 .ARM.attributes
                0x0000000000000fbd       0x33 build/py/objnone.o
 .ARM.attributes
                0x0000000000000ff0       0x33 build/py/objnamedtuple.o
 .ARM.attributes
                0x0000000000001023       0x33 build/py/objrange.o
 .ARM.attributes
                0x0000000000001056       0x33 build/py/objreversed.o
 .ARM.attributes
                0x0000000000001089       0x33 build/py/objset.o
 .ARM.attributes
                0x00000000000010bc       0x33 build/py/objsingleton.o
 .ARM.attributes
                0x00000000000010ef       0x33 build/py/objslice.o
 .ARM.attributes
                0x0000000000001122       0x33 build/py/objstr.o
 .ARM.attributes
                0x0000000000001155       0x33 build/py/objstrunicode.o
 .ARM.attributes
                0x0000000000001188       0x33 build/py/objstringio.o
 .ARM.attributes
                0x00000000000011bb       0x33 build/py/objtuple.o
 .ARM.attributes
                0x00000000000011ee       0x33 build/py/objtype.o
 .ARM.attributes
                0x0000000000001221       0x33 build/py/objzip.o
 .ARM.attributes
                0x0000000000001254       0x33 build/py/opmethods.o
 .ARM.attributes
                0x0000000000001287       0x33 build/py/sequence.o
 .ARM.attributes
                0x00000000000012ba       0x33 build/py/stream.o
 .ARM.attributes
                0x00000000000012ed       0x33 build/py/binary.o
 .ARM.attributes
                0x0000000000001320       0x33 build/py/builtinimport.o
 .ARM.attributes
                0x0000000000001353       0x33 build/py/builtinevex.o
 .ARM.attributes
                0x0000000000001386       0x33 build/py/builtinhelp.o
 .ARM.attributes
                0x00000000000013b9       0x33 build/py/modarray.o
 .ARM.attributes
                0x00000000000013ec       0x33 build/py/modbuiltins.o
 .ARM.attributes
                0x000000000000141f       0x33 build/py/modcollections.o
 .ARM.attributes
                0x0000000000001452       0x33 build/py/modgc.o
 .ARM.attributes
                0x0000000000001485       0x33 build/py/modio.o
 .ARM.attributes
                0x00000000000014b8       0x33 build/py/modmath.o
 .ARM.attributes
                0x00000000000014eb       0x33 build/py/modcmath.o
 .ARM.attributes
                0x000000000000151e       0x33 build/py/modmicropython.o
 .ARM.attributes
                0x0000000000001551       0x33 build/py/modstruct.o
 .ARM.attributes
                0x0000000000001584       0x33 build/py/modsys.o
 .ARM.attributes
                0x00000000000015b7       0x33 build/py/moduerrno.o
 .ARM.attributes
                0x00000000000015ea       0x33 build/py/modthread.o
 .ARM.attributes
                0x000000000000161d       0x33 build/py/vm.o
 .ARM.attributes
                0x0000000000001650       0x33 build/py/bc.o
 .ARM.attributes
                0x0000000000001683       0x33 build/py/showbc.o
 .ARM.attributes
                0x00000000000016b6       0x33 build/py/repl.o
 .ARM.attributes
                0x00000000000016e9       0x33 build/py/smallint.o
 .ARM.attributes
                0x000000000000171c       0x33 build/py/frozenmod.o
 .ARM.attributes
                0x000000000000174f       0x33 build/main.o
 .ARM.attributes
                0x0000000000001782       0x33 build/mhalport.o
 .ARM.attributes
                0x00000000000017b5       0x33 build/lib/utils/printf.o
 .ARM.attributes
                0x00000000000017e8       0x33 build/lib/utils/stdout_helpers.o
 .ARM.attributes
                0x000000000000181b       0x33 build/lib/utils/pyexec.o
 .ARM.attributes
                0x000000000000184e       0x33 build/lib/mp-readline/readline.o
 .ARM.attributes
                0x0000000000001881       0x33 build/build/_frozen_mpy.o
 .ARM.attributes
                0x00000000000018b4       0x33 build/system_LPC17xx.o
 .ARM.attributes
                0x00000000000018e7       0x33 build/core_cm3.o
 .ARM.attributes
                0x000000000000191a       0x33 build/usbcore.o
 .ARM.attributes
                0x000000000000194d       0x33 build/usbdesc.o
 .ARM.attributes
                0x0000000000001980       0x33 build/usbhw.o
 .ARM.attributes
                0x00000000000019b3       0x33 build/usbuser.o
 .ARM.attributes
                0x00000000000019e6       0x33 build/cdcuser.o
 .ARM.attributes
                0x0000000000001a19       0x33 build/serial.o
 .ARM.attributes
                0x0000000000001a4c       0x33 build/led/lib_led.o
 .ARM.attributes
                0x0000000000001a7f       0x33 build/led/funct_led.o
 .ARM.attributes
                0x0000000000001ab2       0x33 build/delay.o
 .ARM.attributes
                0x0000000000001ae5       0x33 build/vcomdemo.o
 .ARM.attributes
                0x0000000000001b18       0x33 build/lib/libc/string0.o
 .ARM.attributes
                0x0000000000001b4b       0x14 build/startup_LPC17xx.o

/DISCARD/
 *(.note.GNU-stack)
LOAD build/py/mpstate.o
LOAD build/py/nlr.o
LOAD build/py/nlrx86.o
LOAD build/py/nlrx64.o
LOAD build/py/nlrthumb.o
LOAD build/py/nlrpowerpc.o
LOAD build/py/nlrxtensa.o
LOAD build/py/nlrsetjmp.o
LOAD build/py/malloc.o
LOAD build/py/gc.o
LOAD build/py/pystack.o
LOAD build/py/qstr.o
LOAD build/py/vstr.o
LOAD build/py/mpprint.o
LOAD build/py/unicode.o
LOAD build/py/mpz.o
LOAD build/py/reader.o
LOAD build/py/lexer.o
LOAD build/py/parse.o
LOAD build/py/scope.o
LOAD build/py/compile.o
LOAD build/py/emitcommon.o
LOAD build/py/emitbc.o
LOAD build/py/asmbase.o
LOAD build/py/asmx64.o
LOAD build/py/emitnx64.o
LOAD build/py/asmx86.o
LOAD build/py/emitnx86.o
LOAD build/py/asmthumb.o
LOAD build/py/emitnthumb.o
LOAD build/py/emitinlinethumb.o
LOAD build/py/asmarm.o
LOAD build/py/emitnarm.o
LOAD build/py/asmxtensa.o
LOAD build/py/emitnxtensa.o
LOAD build/py/emitinlinextensa.o
LOAD build/py/emitnxtensawin.o
LOAD build/py/formatfloat.o
LOAD build/py/parsenumbase.o
LOAD build/py/parsenum.o
LOAD build/py/emitglue.o
LOAD build/py/persistentcode.o
LOAD build/py/runtime.o
LOAD build/py/runtime_utils.o
LOAD build/py/scheduler.o
LOAD build/py/nativeglue.o
LOAD build/py/pairheap.o
LOAD build/py/ringbuf.o
LOAD build/py/stackctrl.o
LOAD build/py/argcheck.o
LOAD build/py/warning.o
LOAD build/py/profile.o
LOAD build/py/map.o
LOAD build/py/obj.o
LOAD build/py/objarray.o
LOAD build/py/objattrtuple.o
LOAD build/py/objbool.o
LOAD build/py/objboundmeth.o
LOAD build/py/objcell.o
LOAD build/py/objclosure.o
LOAD build/py/objcomplex.o
LOAD build/py/objdeque.o
LOAD build/py/objdict.o
LOAD build/py/objenumerate.o
LOAD build/py/objexcept.o
LOAD build/py/objfilter.o
LOAD build/py/objfloat.o
LOAD build/py/objfun.o
LOAD build/py/objgenerator.o
LOAD build/py/objgetitemiter.o
LOAD build/py/objint.o
LOAD build/py/objint_longlong.o
LOAD build/py/objint_mpz.o
LOAD build/py/objlist.o
LOAD build/py/objmap.o
LOAD build/py/objmodule.o
LOAD build/py/objobject.o
LOAD build/py/objpolyiter.o
LOAD build/py/objproperty.o
LOAD build/py/objnone.o
LOAD build/py/objnamedtuple.o
LOAD build/py/objrange.o
LOAD build/py/objreversed.o
LOAD build/py/objset.o
LOAD build/py/objsingleton.o
LOAD build/py/objslice.o
LOAD build/py/objstr.o
LOAD build/py/objstrunicode.o
LOAD build/py/objstringio.o
LOAD build/py/objtuple.o
LOAD build/py/objtype.o
LOAD build/py/objzip.o
LOAD build/py/opmethods.o
LOAD build/py/sequence.o
LOAD build/py/stream.o
LOAD build/py/binary.o
LOAD build/py/builtinimport.o
LOAD build/py/builtinevex.o
LOAD build/py/builtinhelp.o
LOAD build/py/modarray.o
LOAD build/py/modbuiltins.o
LOAD build/py/modcollections.o
LOAD build/py/modgc.o
LOAD build/py/modio.o
LOAD build/py/modmath.o
LOAD build/py/modcmath.o
LOAD build/py/modmicropython.o
LOAD build/py/modstruct.o
LOAD build/py/modsys.o
LOAD build/py/moduerrno.o
LOAD build/py/modthread.o
LOAD build/py/vm.o
LOAD build/py/bc.o
LOAD build/py/showbc.o
LOAD build/py/repl.o
LOAD build/py/smallint.o
LOAD build/py/frozenmod.o
LOAD build/main.o
LOAD build/mhalport.o
LOAD build/lib/utils/printf.o
LOAD build/lib/utils/stdout_helpers.o
LOAD build/lib/utils/pyexec.o
LOAD build/lib/mp-readline/readline.o
LOAD build/build/_frozen_mpy.o
LOAD build/system_LPC17xx.o
LOAD build/core_cm3.o
LOAD build/usbcore.o
LOAD build/usbdesc.o
LOAD build/usbhw.o
LOAD build/usbuser.o
LOAD build/cdcuser.o
LOAD build/serial.o
LOAD build/led/lib_led.o
LOAD build/led/funct_led.o
LOAD build/delay.o
LOAD build/vcomdemo.o
LOAD build/lib/libc/string0.o
LOAD build/startup_LPC17xx.o
OUTPUT(build/firmware.elf elf32-littlearm)

.debug_ranges   0x0000000000000000     0x4fd0
 .debug_ranges  0x0000000000000000       0x18 build/py/nlr.o
 .debug_ranges  0x0000000000000018       0x18 build/py/nlrthumb.o
 .debug_ranges  0x0000000000000030       0x38 build/py/malloc.o
 .debug_ranges  0x0000000000000068      0x390 build/py/gc.o
 .debug_ranges  0x00000000000003f8      0x188 build/py/qstr.o
 .debug_ranges  0x0000000000000580       0xe0 build/py/vstr.o
 .debug_ranges  0x0000000000000660       0xc0 build/py/mpprint.o
 .debug_ranges  0x0000000000000720       0x60 build/py/unicode.o
 .debug_ranges  0x0000000000000780       0x20 build/py/reader.o
 .debug_ranges  0x00000000000007a0      0x200 build/py/lexer.o
 .debug_ranges  0x00000000000009a0      0x378 build/py/parse.o
 .debug_ranges  0x0000000000000d18       0xa8 build/py/scope.o
 .debug_ranges  0x0000000000000dc0      0xe48 build/py/compile.o
 .debug_ranges  0x0000000000001c08       0x18 build/py/emitcommon.o
 .debug_ranges  0x0000000000001c20      0x3e8 build/py/emitbc.o
 .debug_ranges  0x0000000000002008       0x10 build/py/parsenumbase.o
 .debug_ranges  0x0000000000002018       0x20 build/py/parsenum.o
 .debug_ranges  0x0000000000002038       0x28 build/py/emitglue.o
 .debug_ranges  0x0000000000002060      0x3f8 build/py/runtime.o
 .debug_ranges  0x0000000000002458       0x18 build/py/runtime_utils.o
 .debug_ranges  0x0000000000002470       0x10 build/py/scheduler.o
 .debug_ranges  0x0000000000002480       0x50 build/py/pairheap.o
 .debug_ranges  0x00000000000024d0       0x20 build/py/ringbuf.o
 .debug_ranges  0x00000000000024f0       0x20 build/py/stackctrl.o
 .debug_ranges  0x0000000000002510       0x90 build/py/argcheck.o
 .debug_ranges  0x00000000000025a0       0xc8 build/py/map.o
 .debug_ranges  0x0000000000002668      0x1d0 build/py/obj.o
 .debug_ranges  0x0000000000002838       0x40 build/py/objbool.o
 .debug_ranges  0x0000000000002878       0x20 build/py/objboundmeth.o
 .debug_ranges  0x0000000000002898       0x20 build/py/objcell.o
 .debug_ranges  0x00000000000028b8       0x18 build/py/objclosure.o
 .debug_ranges  0x00000000000028d0      0x208 build/py/objdict.o
 .debug_ranges  0x0000000000002ad8       0xc8 build/py/objexcept.o
 .debug_ranges  0x0000000000002ba0      0x118 build/py/objfun.o
 .debug_ranges  0x0000000000002cb8       0xb0 build/py/objgenerator.o
 .debug_ranges  0x0000000000002d68       0x18 build/py/objgetitemiter.o
 .debug_ranges  0x0000000000002d80      0x108 build/py/objint.o
 .debug_ranges  0x0000000000002e88      0x208 build/py/objlist.o
 .debug_ranges  0x0000000000003090       0x88 build/py/objmap.o
 .debug_ranges  0x0000000000003118       0x30 build/py/objmodule.o
 .debug_ranges  0x0000000000003148       0x10 build/py/objobject.o
 .debug_ranges  0x0000000000003158       0x10 build/py/objpolyiter.o
 .debug_ranges  0x0000000000003168       0x10 build/py/objnone.o
 .debug_ranges  0x0000000000003178       0x60 build/py/objrange.o
 .debug_ranges  0x00000000000031d8       0x10 build/py/objsingleton.o
 .debug_ranges  0x00000000000031e8      0x588 build/py/objstr.o
 .debug_ranges  0x0000000000003770       0xf0 build/py/objtuple.o
 .debug_ranges  0x0000000000003860      0x2f0 build/py/objtype.o
 .debug_ranges  0x0000000000003b50       0x70 build/py/objzip.o
 .debug_ranges  0x0000000000003bc0       0x28 build/py/opmethods.o
 .debug_ranges  0x0000000000003be8       0xc0 build/py/sequence.o
 .debug_ranges  0x0000000000003ca8      0x170 build/py/stream.o
 .debug_ranges  0x0000000000003e18       0x60 build/py/binary.o
 .debug_ranges  0x0000000000003e78       0xc0 build/py/builtinimport.o
 .debug_ranges  0x0000000000003f38       0x50 build/py/builtinevex.o
 .debug_ranges  0x0000000000003f88      0x178 build/py/modbuiltins.o
 .debug_ranges  0x0000000000004100       0x20 build/py/modmicropython.o
 .debug_ranges  0x0000000000004120      0x360 build/py/vm.o
 .debug_ranges  0x0000000000004480      0x1d0 build/py/bc.o
 .debug_ranges  0x0000000000004650       0xf8 build/py/repl.o
 .debug_ranges  0x0000000000004748       0x20 build/py/smallint.o
 .debug_ranges  0x0000000000004768       0x68 build/py/frozenmod.o
 .debug_ranges  0x00000000000047d0       0x48 build/main.o
 .debug_ranges  0x0000000000004818       0x18 build/mhalport.o
 .debug_ranges  0x0000000000004830       0x40 build/lib/utils/printf.o
 .debug_ranges  0x0000000000004870       0x18 build/lib/utils/stdout_helpers.o
 .debug_ranges  0x0000000000004888      0x178 build/lib/utils/pyexec.o
 .debug_ranges  0x0000000000004a00       0x78 build/lib/mp-readline/readline.o
 .debug_ranges  0x0000000000004a78       0x18 build/system_LPC17xx.o
 .debug_ranges  0x0000000000004a90       0xb8 build/core_cm3.o
 .debug_ranges  0x0000000000004b48       0xd0 build/usbcore.o
 .debug_ranges  0x0000000000004c18       0xb8 build/usbhw.o
 .debug_ranges  0x0000000000004cd0       0x48 build/usbuser.o
 .debug_ranges  0x0000000000004d18       0x68 build/cdcuser.o
 .debug_ranges  0x0000000000004d80       0x70 build/serial.o
 .debug_ranges  0x0000000000004df0       0x20 build/led/lib_led.o
 .debug_ranges  0x0000000000004e10       0x20 build/led/funct_led.o
 .debug_ranges  0x0000000000004e30       0x20 build/delay.o
 .debug_ranges  0x0000000000004e50       0x20 build/vcomdemo.o
 .debug_ranges  0x0000000000004e70      0x160 build/lib/libc/string0.o

Cross Reference Table

Symbol                                            File
ADC_IRQHandler                                    build/startup_LPC17xx.o
BOD_IRQHandler                                    build/startup_LPC17xx.o
BulkBufIn                                         build/cdcuser.o
BulkBufOut                                        build/cdcuser.o
BusFault_Handler                                  build/startup_LPC17xx.o
CAN_IRQHandler                                    build/startup_LPC17xx.o
CDC_BulkIn                                        build/cdcuser.o
                                                  build/usbuser.o
CDC_BulkOut                                       build/cdcuser.o
                                                  build/usbuser.o
CDC_ClearCommFeature                              build/cdcuser.o
                                                  build/usbcore.o
CDC_DepInEmpty                                    build/cdcuser.o
CDC_GetCommFeature                                build/cdcuser.o
                                                  build/usbcore.o
CDC_GetEncapsulatedResponse                       build/cdcuser.o
                                                  build/usbcore.o
CDC_GetLineCoding                                 build/cdcuser.o
                                                  build/usbcore.o
CDC_GetSerialState                                build/cdcuser.o
                                                  build/vcomdemo.o
                                                  build/usbuser.o
CDC_Init                                          build/cdcuser.o
                                                  build/vcomdemo.o
CDC_LineCoding                                    build/cdcuser.o
CDC_NotificationIn                                build/cdcuser.o
                                                  build/vcomdemo.o
                                                  build/usbuser.o
CDC_OutBuf                                        build/cdcuser.o
CDC_OutBufAvailChar                               build/cdcuser.o
                                                  build/mhalport.o
CDC_RdOutBuf                                      build/cdcuser.o
                                                  build/mhalport.o
CDC_SendBreak                                     build/cdcuser.o
                                                  build/usbcore.o
CDC_SendEncapsulatedCommand                       build/cdcuser.o
                                                  build/usbcore.o
CDC_SerialState                                   build/cdcuser.o
CDC_SetCommFeature                                build/cdcuser.o
                                                  build/usbcore.o
CDC_SetControlLineState                           build/cdcuser.o
                                                  build/usbcore.o
CDC_SetLineCoding                                 build/cdcuser.o
                                                  build/usbcore.o
CDC_WrOutBuf                                      build/cdcuser.o
DELAY_ms                                          build/delay.o
DELAY_sec                                         build/delay.o
DELAY_us                                          build/delay.o
DMA_IRQHandler                                    build/startup_LPC17xx.o
DebugMon_Handler                                  build/startup_LPC17xx.o
Default_Handler                                   build/startup_LPC17xx.o
EINT0_IRQHandler                                  build/startup_LPC17xx.o
EINT1_IRQHandler                                  build/startup_LPC17xx.o
EINT2_IRQHandler                                  build/startup_LPC17xx.o
EINT3_IRQHandler                                  build/startup_LPC17xx.o
ENET_IRQHandler                                   build/startup_LPC17xx.o
EP0Buf                                            build/usbcore.o
                                                  build/cdcuser.o
EP0Data                                           build/usbcore.o
EPAdr                                             build/usbhw.o
HardFault_Handler                                 build/startup_LPC17xx.o
I2C0_IRQHandler                                   build/startup_LPC17xx.o
I2C1_IRQHandler                                   build/startup_LPC17xx.o
I2C2_IRQHandler                                   build/startup_LPC17xx.o
I2S_IRQHandler                                    build/startup_LPC17xx.o
LED_Off                                           build/led/funct_led.o
LED_On                                            build/led/funct_led.o
LED_Out                                           build/led/funct_led.o
LED_deinit                                        build/led/lib_led.o
LED_init                                          build/led/lib_led.o
                                                  build/main.o
LED_upgrade                                       build/led/lib_led.o
MCPWM_IRQHandler                                  build/startup_LPC17xx.o
MemManage_Handler                                 build/startup_LPC17xx.o
NMI_Handler                                       build/startup_LPC17xx.o
NotificationBuf                                   build/cdcuser.o
PLL0_IRQHandler                                   build/startup_LPC17xx.o
PLL1_IRQHandler                                   build/startup_LPC17xx.o
PWM1_IRQHandler                                   build/startup_LPC17xx.o
PendSV_Handler                                    build/startup_LPC17xx.o
QEI_IRQHandler                                    build/startup_LPC17xx.o
RIT_IRQHandler                                    build/startup_LPC17xx.o
RTC_IRQHandler                                    build/startup_LPC17xx.o
RdCmdDat                                          build/usbhw.o
SPI_IRQHandler                                    build/startup_LPC17xx.o
SSP0_IRQHandler                                   build/startup_LPC17xx.o
SSP1_IRQHandler                                   build/startup_LPC17xx.o
SVC_Handler                                       build/startup_LPC17xx.o
SetupPacket                                       build/usbcore.o
SysTick_Handler                                   build/startup_LPC17xx.o
SystemCoreClock                                   build/system_LPC17xx.o
                                                  build/serial.o
SystemCoreClockUpdate                             build/system_LPC17xx.o
SystemInit                                        build/system_LPC17xx.o
                                                  build/startup_LPC17xx.o
                                                  build/main.o
TIMER0_IRQHandler                                 build/startup_LPC17xx.o
TIMER1_IRQHandler                                 build/startup_LPC17xx.o
TIMER2_IRQHandler                                 build/startup_LPC17xx.o
TIMER3_IRQHandler                                 build/startup_LPC17xx.o
UART0_IRQHandler                                  build/serial.o
UART1_IRQHandler                                  build/serial.o
UART2_IRQHandler                                  build/startup_LPC17xx.o
UART3_IRQHandler                                  build/startup_LPC17xx.o
USB_AltSetting                                    build/usbcore.o
USB_ClearEPBuf                                    build/usbhw.o
USB_ClrStallEP                                    build/usbhw.o
                                                  build/usbcore.o
USB_ConfigDescriptor                              build/usbdesc.o
                                                  build/usbcore.o
USB_ConfigEP                                      build/usbhw.o
                                                  build/usbcore.o
USB_Configuration                                 build/usbcore.o
                                                  build/main.o
USB_Configure                                     build/usbhw.o
                                                  build/usbcore.o
USB_Configure_Event                               build/usbuser.o
                                                  build/usbcore.o
USB_Connect                                       build/usbhw.o
                                                  build/main.o
USB_DataInStage                                   build/usbcore.o
USB_DataOutStage                                  build/usbcore.o
USB_DeviceAddress                                 build/usbcore.o
USB_DeviceDescriptor                              build/usbdesc.o
                                                  build/usbcore.o
USB_DeviceStatus                                  build/usbcore.o
                                                  build/usbhw.o
USB_DirCtrlEP                                     build/usbhw.o
                                                  build/usbcore.o
USB_DisableEP                                     build/usbhw.o
                                                  build/usbcore.o
USB_EnableEP                                      build/usbhw.o
                                                  build/usbcore.o
USB_EndPoint0                                     build/usbcore.o
                                                  build/usbuser.o
USB_EndPoint1                                     build/usbuser.o
USB_EndPoint10                                    build/usbuser.o
USB_EndPoint11                                    build/usbuser.o
USB_EndPoint12                                    build/usbuser.o
USB_EndPoint13                                    build/usbuser.o
USB_EndPoint14                                    build/usbuser.o
USB_EndPoint15                                    build/usbuser.o
USB_EndPoint2                                     build/usbuser.o
USB_EndPoint3                                     build/usbuser.o
USB_EndPoint4                                     build/usbuser.o
USB_EndPoint5                                     build/usbuser.o
USB_EndPoint6                                     build/usbuser.o
USB_EndPoint7                                     build/usbuser.o
USB_EndPoint8                                     build/usbuser.o
USB_EndPoint9                                     build/usbuser.o
USB_EndPointHalt                                  build/usbcore.o
USB_EndPointMask                                  build/usbcore.o
USB_EndPointStall                                 build/usbcore.o
USB_GetFrame                                      build/usbhw.o
USB_IRQHandler                                    build/usbhw.o
USB_Init                                          build/usbhw.o
                                                  build/main.o
USB_NumInterfaces                                 build/usbcore.o
USB_P_EP                                          build/usbuser.o
                                                  build/usbhw.o
USB_ReadEP                                        build/usbhw.o
                                                  build/cdcuser.o
                                                  build/usbcore.o
USB_ReqGetConfiguration                           build/usbcore.o
USB_ReqGetDescriptor                              build/usbcore.o
USB_ReqGetInterface                               build/usbcore.o
USB_ReqGetStatus                                  build/usbcore.o
USB_ReqSetAddress                                 build/usbcore.o
USB_ReqSetClrFeature                              build/usbcore.o
USB_ReqSetConfiguration                           build/usbcore.o
USB_ReqSetInterface                               build/usbcore.o
USB_Reset                                         build/usbhw.o
USB_ResetCore                                     build/usbcore.o
                                                  build/usbuser.o
USB_ResetEP                                       build/usbhw.o
                                                  build/usbcore.o
USB_Reset_Event                                   build/usbuser.o
                                                  build/usbhw.o
USB_Resume                                        build/usbhw.o
USB_SetAddress                                    build/usbhw.o
                                                  build/usbcore.o
USB_SetStallEP                                    build/usbhw.o
                                                  build/usbcore.o
USB_SetupStage                                    build/usbcore.o
USB_StatusInStage                                 build/usbcore.o
USB_StatusOutStage                                build/usbcore.o
USB_StringDescriptor                              build/usbdesc.o
                                                  build/usbcore.o
USB_Suspend                                       build/usbhw.o
USB_WakeUp                                        build/usbhw.o
USB_WakeUpCfg                                     build/usbhw.o
                                                  build/usbcore.o
USB_WriteEP                                       build/usbhw.o
                                                  build/vcomdemo.o
                                                  build/cdcuser.o
                                                  build/usbcore.o
UsageFault_Handler                                build/startup_LPC17xx.o
VCOM_CheckSerialState                             build/vcomdemo.o
VCOM_Init                                         build/vcomdemo.o
                                                  build/main.o
VCOM_Serial2Usb                                   build/vcomdemo.o
                                                  build/mhalport.o
WDT_IRQHandler                                    build/startup_LPC17xx.o
WrCmd                                             build/usbhw.o
WrCmdDat                                          build/usbhw.o
WrCmdEP                                           build/usbhw.o
__GI_vsnprintf                                    build/lib/utils/printf.o
__LDREXB                                          build/core_cm3.o
__LDREXH                                          build/core_cm3.o
__LDREXW                                          build/core_cm3.o
__RBIT                                            build/core_cm3.o
__REV                                             build/core_cm3.o
__REV16                                           build/core_cm3.o
__REVSH                                           build/core_cm3.o
__STREXB                                          build/core_cm3.o
__STREXH                                          build/core_cm3.o
__STREXW                                          build/core_cm3.o
__cs3_heap_end                                    build/startup_LPC17xx.o
__cs3_heap_start                                  build/startup_LPC17xx.o
__cs3_interrupt_vector_cortex_m                   build/startup_LPC17xx.o
__cs3_reset                                       build/startup_LPC17xx.o
__cs3_reset_cortex_m                              build/startup_LPC17xx.o
__cs3_stack                                       build/startup_LPC17xx.o
__cs3_stack_mem                                   build/startup_LPC17xx.o
__cs3_stack_size                                  build/startup_LPC17xx.o
__fatal_error                                     build/main.o
__get_BASEPRI                                     build/core_cm3.o
__get_CONTROL                                     build/core_cm3.o
__get_FAULTMASK                                   build/core_cm3.o
__get_MSP                                         build/core_cm3.o
__get_PRIMASK                                     build/core_cm3.o
__get_PSP                                         build/core_cm3.o
__set_BASEPRI                                     build/core_cm3.o
__set_CONTROL                                     build/core_cm3.o
__set_FAULTMASK                                   build/core_cm3.o
__set_MSP                                         build/core_cm3.o
__set_PRIMASK                                     build/core_cm3.o
__set_PSP                                         build/core_cm3.o
closure_type                                      build/py/objclosure.o
do_str                                            build/main.o
emit_bc_free                                      build/py/emitbc.o
                                                  build/py/compile.o
emit_bc_new                                       build/py/emitbc.o
                                                  build/py/compile.o
emit_bc_set_max_num_labels                        build/py/emitbc.o
                                                  build/py/compile.o
find_subbytes                                     build/py/objstr.o
gc_alloc                                          build/py/gc.o
                                                  build/py/malloc.o
gc_collect                                        build/main.o
                                                  build/py/gc.o
gc_collect_end                                    build/py/gc.o
                                                  build/main.o
gc_collect_root                                   build/py/gc.o
                                                  build/main.o
gc_collect_start                                  build/py/gc.o
                                                  build/main.o
gc_dump_alloc_table                               build/py/gc.o
gc_dump_info                                      build/py/gc.o
                                                  build/main.o
gc_free                                           build/py/gc.o
                                                  build/py/malloc.o
gc_info                                           build/py/gc.o
gc_init                                           build/py/gc.o
                                                  build/main.o
gc_is_locked                                      build/py/gc.o
                                                  build/py/runtime.o
gc_lock                                           build/py/gc.o
                                                  build/py/modmicropython.o
gc_nbytes                                         build/py/gc.o
                                                  build/py/qstr.o
gc_realloc                                        build/py/gc.o
                                                  build/py/malloc.o
gc_sweep_all                                      build/py/gc.o
gc_unlock                                         build/py/gc.o
                                                  build/py/modmicropython.o
led_mask                                          build/led/funct_led.o
led_value                                         build/led/lib_led.o
                                                  build/led/funct_led.o
m_free                                            build/py/malloc.o
                                                  build/py/objtype.o
                                                  build/py/objtuple.o
                                                  build/py/objmap.o
                                                  build/py/objint.o
                                                  build/py/objfun.o
                                                  build/py/objclosure.o
                                                  build/py/objboundmeth.o
                                                  build/py/map.o
                                                  build/py/runtime.o
                                                  build/py/emitbc.o
                                                  build/py/scope.o
                                                  build/py/parse.o
                                                  build/py/lexer.o
                                                  build/py/reader.o
                                                  build/py/mpprint.o
                                                  build/py/vstr.o
m_malloc                                          build/py/malloc.o
                                                  build/py/objzip.o
                                                  build/py/objtype.o
                                                  build/py/objtuple.o
                                                  build/py/objstr.o
                                                  build/py/objrange.o
                                                  build/py/objobject.o
                                                  build/py/objmodule.o
                                                  build/py/objmap.o
                                                  build/py/objlist.o
                                                  build/py/objint.o
                                                  build/py/objgenerator.o
                                                  build/py/objfun.o
                                                  build/py/objdict.o
                                                  build/py/objclosure.o
                                                  build/py/objcell.o
                                                  build/py/objboundmeth.o
                                                  build/py/runtime.o
                                                  build/py/emitbc.o
                                                  build/py/scope.o
                                                  build/py/parse.o
                                                  build/py/lexer.o
                                                  build/py/reader.o
                                                  build/py/vstr.o
m_malloc0                                         build/py/malloc.o
                                                  build/py/objtype.o
                                                  build/py/map.o
                                                  build/py/emitglue.o
                                                  build/py/emitbc.o
                                                  build/py/scope.o
m_malloc_fail                                     build/py/runtime.o
                                                  build/py/qstr.o
                                                  build/py/malloc.o
m_malloc_maybe                                    build/py/malloc.o
                                                  build/lib/mp-readline/readline.o
                                                  build/py/objfun.o
                                                  build/py/objexcept.o
                                                  build/py/objboundmeth.o
                                                  build/py/qstr.o
m_realloc                                         build/py/malloc.o
                                                  build/py/objtuple.o
                                                  build/py/objstr.o
                                                  build/py/objlist.o
                                                  build/py/runtime.o
                                                  build/py/scope.o
                                                  build/py/parse.o
                                                  build/py/lexer.o
                                                  build/py/vstr.o
m_realloc_maybe                                   build/py/malloc.o
                                                  build/py/objexcept.o
                                                  build/py/parse.o
                                                  build/py/qstr.o
main                                              build/main.o
                                                  build/startup_LPC17xx.o
memchr                                            build/lib/libc/string0.o
memcmp                                            build/lib/libc/string0.o
                                                  build/py/frozenmod.o
                                                  build/py/repl.o
                                                  build/py/sequence.o
                                                  build/py/objstr.o
                                                  build/py/qstr.o
memcpy                                            build/lib/libc/string0.o
                                                  build/lib/mp-readline/readline.o
                                                  build/lib/utils/printf.o
                                                  build/py/builtinimport.o
                                                  build/py/binary.o
                                                  build/py/sequence.o
                                                  build/py/objtype.o
                                                  build/py/objtuple.o
                                                  build/py/objstr.o
                                                  build/py/objlist.o
                                                  build/py/objfun.o
                                                  build/py/objexcept.o
                                                  build/py/objdict.o
                                                  build/py/objclosure.o
                                                  build/py/objboundmeth.o
                                                  build/py/runtime.o
                                                  build/py/compile.o
                                                  build/py/qstr.o
                                                  build/py/gc.o
memmove                                           build/lib/libc/string0.o
                                                  build/py/objstr.o
                                                  build/py/objlist.o
                                                  build/py/vstr.o
memset                                            build/lib/libc/string0.o
                                                  build/lib/mp-readline/readline.o
                                                  build/py/bc.o
                                                  build/py/binary.o
                                                  build/py/objtype.o
                                                  build/py/objstr.o
                                                  build/py/objlist.o
                                                  build/py/objint.o
                                                  build/py/compile.o
                                                  build/py/gc.o
mp_arg_check_num_sig                              build/py/argcheck.o
                                                  build/py/objzip.o
                                                  build/py/objtype.o
                                                  build/py/objtuple.o
                                                  build/py/objstr.o
                                                  build/py/objrange.o
                                                  build/py/objobject.o
                                                  build/py/objmap.o
                                                  build/py/objlist.o
                                                  build/py/objint.o
                                                  build/py/objfun.o
                                                  build/py/objexcept.o
                                                  build/py/objdict.o
                                                  build/py/objbool.o
mp_arg_error_terse_mismatch                       build/py/argcheck.o
                                                  build/py/bc.o
mp_arg_parse_all                                  build/py/argcheck.o
                                                  build/py/modbuiltins.o
                                                  build/py/objlist.o
mp_arg_parse_all_kw_array                         build/py/argcheck.o
mp_binary_get_int                                 build/py/binary.o
mp_binary_get_size                                build/py/binary.o
mp_binary_get_val                                 build/py/binary.o
mp_binary_get_val_array                           build/py/binary.o
mp_binary_op                                      build/py/runtime.o
                                                  build/py/vm.o
                                                  build/py/modbuiltins.o
                                                  build/py/sequence.o
                                                  build/py/objtype.o
                                                  build/py/objlist.o
                                                  build/py/objint.o
                                                  build/py/objbool.o
                                                  build/py/parse.o
mp_binary_op_method_name                          build/py/objtype.o
mp_binary_set_int                                 build/py/binary.o
                                                  build/py/objint.o
mp_binary_set_val                                 build/py/binary.o
mp_binary_set_val_array                           build/py/binary.o
mp_binary_set_val_array_from_int                  build/py/binary.o
mp_builtin___build_class___obj                    build/py/modbuiltins.o
                                                  build/py/runtime.o
mp_builtin___import__                             build/py/builtinimport.o
                                                  build/py/runtime.o
mp_builtin___import___obj                         build/py/builtinimport.o
                                                  build/py/modbuiltins.o
mp_builtin___repl_print___obj                     build/py/modbuiltins.o
mp_builtin_abs_obj                                build/py/modbuiltins.o
mp_builtin_all_obj                                build/py/modbuiltins.o
mp_builtin_any_obj                                build/py/modbuiltins.o
mp_builtin_bin_obj                                build/py/modbuiltins.o
mp_builtin_callable_obj                           build/py/modbuiltins.o
mp_builtin_chr_obj                                build/py/modbuiltins.o
mp_builtin_dir_obj                                build/py/modbuiltins.o
mp_builtin_divmod_obj                             build/py/modbuiltins.o
mp_builtin_eval_obj                               build/py/builtinevex.o
                                                  build/py/modbuiltins.o
mp_builtin_exec_obj                               build/py/builtinevex.o
                                                  build/py/modbuiltins.o
mp_builtin_getattr_obj                            build/py/modbuiltins.o
mp_builtin_globals_obj                            build/py/modbuiltins.o
mp_builtin_hasattr_obj                            build/py/modbuiltins.o
mp_builtin_hash_obj                               build/py/modbuiltins.o
mp_builtin_hex_obj                                build/py/modbuiltins.o
mp_builtin_id_obj                                 build/py/modbuiltins.o
mp_builtin_isinstance_obj                         build/py/objtype.o
                                                  build/py/modbuiltins.o
mp_builtin_issubclass_obj                         build/py/objtype.o
                                                  build/py/modbuiltins.o
mp_builtin_iter_obj                               build/py/modbuiltins.o
mp_builtin_len_obj                                build/py/modbuiltins.o
mp_builtin_locals_obj                             build/py/modbuiltins.o
mp_builtin_module_map                             build/py/objmodule.o
mp_builtin_next_obj                               build/py/modbuiltins.o
                                                  build/py/runtime.o
mp_builtin_oct_obj                                build/py/modbuiltins.o
mp_builtin_open                                   build/main.o
mp_builtin_open_obj                               build/main.o
                                                  build/py/modbuiltins.o
mp_builtin_ord_obj                                build/py/modbuiltins.o
mp_builtin_pow_obj                                build/py/modbuiltins.o
mp_builtin_print_obj                              build/py/modbuiltins.o
mp_builtin_repr_obj                               build/py/modbuiltins.o
mp_builtin_round_obj                              build/py/modbuiltins.o
mp_builtin_setattr_obj                            build/py/modbuiltins.o
mp_builtin_sorted_obj                             build/py/modbuiltins.o
mp_builtin_sum_obj                                build/py/modbuiltins.o
mp_call_function_0                                build/py/runtime.o
                                                  build/lib/utils/pyexec.o
                                                  build/main.o
                                                  build/py/modbuiltins.o
                                                  build/py/builtinimport.o
mp_call_function_1                                build/py/runtime.o
                                                  build/py/objtype.o
                                                  build/py/objlist.o
                                                  build/py/runtime_utils.o
mp_call_function_1_protected                      build/py/runtime_utils.o
mp_call_function_2                                build/py/runtime.o
                                                  build/py/runtime_utils.o
mp_call_function_2_protected                      build/py/runtime_utils.o
mp_call_function_n_kw                             build/py/runtime.o
                                                  build/py/vm.o
                                                  build/py/modbuiltins.o
                                                  build/py/objtype.o
                                                  build/py/objmap.o
                                                  build/py/objclosure.o
                                                  build/py/objboundmeth.o
mp_call_method_n_kw                               build/py/runtime.o
                                                  build/py/vm.o
                                                  build/py/objtype.o
                                                  build/py/objgetitemiter.o
mp_call_method_n_kw_var                           build/py/runtime.o
                                                  build/py/vm.o
mp_call_method_self_n_kw                          build/py/objboundmeth.o
                                                  build/py/objtype.o
mp_compile                                        build/py/compile.o
                                                  build/lib/utils/pyexec.o
                                                  build/main.o
                                                  build/py/runtime.o
mp_const_GeneratorExit_obj                        build/py/objgenerator.o
                                                  build/py/vm.o
mp_const_ellipsis_obj                             build/py/objsingleton.o
                                                  build/py/modbuiltins.o
                                                  build/py/emitbc.o
mp_const_empty_bytes_obj                          build/py/objstr.o
mp_const_empty_dict_obj                           build/py/objdict.o
mp_const_empty_tuple_obj                          build/py/objtuple.o
                                                  build/py/bc.o
                                                  build/py/objgenerator.o
                                                  build/py/objexcept.o
mp_convert_member_lookup                          build/py/runtime.o
                                                  build/py/objtype.o
mp_decompress_rom_string                          build/py/qstr.o
                                                  build/py/objexcept.o
mp_deinit                                         build/py/runtime.o
                                                  build/main.o
mp_delete_global                                  build/py/runtime.o
                                                  build/py/vm.o
mp_delete_name                                    build/py/runtime.o
                                                  build/py/vm.o
mp_emit_bc_adjust_stack_size                      build/py/emitbc.o
                                                  build/py/compile.o
mp_emit_bc_attr                                   build/py/emitbc.o
                                                  build/py/compile.o
mp_emit_bc_binary_op                              build/py/emitbc.o
                                                  build/py/compile.o
mp_emit_bc_build                                  build/py/emitbc.o
                                                  build/py/compile.o
mp_emit_bc_call_function                          build/py/emitbc.o
                                                  build/py/compile.o
mp_emit_bc_call_method                            build/py/emitbc.o
                                                  build/py/compile.o
mp_emit_bc_delete_global                          build/py/emitbc.o
mp_emit_bc_delete_local                           build/py/emitbc.o
mp_emit_bc_dup_top                                build/py/emitbc.o
                                                  build/py/compile.o
mp_emit_bc_dup_top_two                            build/py/emitbc.o
                                                  build/py/compile.o
mp_emit_bc_end_except_handler                     build/py/emitbc.o
                                                  build/py/compile.o
mp_emit_bc_end_finally                            build/py/emitbc.o
                                                  build/py/compile.o
mp_emit_bc_end_pass                               build/py/emitbc.o
                                                  build/py/compile.o
mp_emit_bc_for_iter                               build/py/emitbc.o
                                                  build/py/compile.o
mp_emit_bc_for_iter_end                           build/py/emitbc.o
                                                  build/py/compile.o
mp_emit_bc_get_iter                               build/py/emitbc.o
                                                  build/py/compile.o
mp_emit_bc_import                                 build/py/emitbc.o
                                                  build/py/compile.o
mp_emit_bc_jump                                   build/py/emitbc.o
                                                  build/py/compile.o
mp_emit_bc_jump_if_or_pop                         build/py/emitbc.o
                                                  build/py/compile.o
mp_emit_bc_label_assign                           build/py/emitbc.o
                                                  build/py/compile.o
mp_emit_bc_last_emit_was_return_value             build/py/emitbc.o
                                                  build/py/compile.o
mp_emit_bc_load_build_class                       build/py/emitbc.o
                                                  build/py/compile.o
mp_emit_bc_load_const_obj                         build/py/emitbc.o
                                                  build/py/compile.o
mp_emit_bc_load_const_small_int                   build/py/emitbc.o
                                                  build/py/compile.o
mp_emit_bc_load_const_str                         build/py/emitbc.o
                                                  build/py/compile.o
mp_emit_bc_load_const_tok                         build/py/emitbc.o
                                                  build/py/compile.o
mp_emit_bc_load_global                            build/py/emitbc.o
                                                  build/py/compile.o
mp_emit_bc_load_local                             build/py/emitbc.o
                                                  build/py/compile.o
mp_emit_bc_load_method                            build/py/emitbc.o
                                                  build/py/compile.o
mp_emit_bc_load_null                              build/py/emitbc.o
                                                  build/py/compile.o
mp_emit_bc_make_closure                           build/py/emitbc.o
                                                  build/py/compile.o
mp_emit_bc_make_function                          build/py/emitbc.o
                                                  build/py/compile.o
mp_emit_bc_method_table_delete_id_ops             build/py/emitbc.o
                                                  build/py/compile.o
mp_emit_bc_method_table_load_id_ops               build/py/emitbc.o
                                                  build/py/compile.o
mp_emit_bc_method_table_store_id_ops              build/py/emitbc.o
                                                  build/py/compile.o
mp_emit_bc_pop_except_jump                        build/py/emitbc.o
                                                  build/py/compile.o
mp_emit_bc_pop_jump_if                            build/py/emitbc.o
                                                  build/py/compile.o
mp_emit_bc_pop_top                                build/py/emitbc.o
                                                  build/py/compile.o
mp_emit_bc_raise_varargs                          build/py/emitbc.o
                                                  build/py/compile.o
mp_emit_bc_return_value                           build/py/emitbc.o
                                                  build/py/compile.o
mp_emit_bc_rot_three                              build/py/emitbc.o
                                                  build/py/compile.o
mp_emit_bc_rot_two                                build/py/emitbc.o
                                                  build/py/compile.o
mp_emit_bc_set_source_line                        build/py/emitbc.o
                                                  build/py/compile.o
mp_emit_bc_setup_block                            build/py/emitbc.o
                                                  build/py/compile.o
mp_emit_bc_start_except_handler                   build/py/emitbc.o
                                                  build/py/compile.o
mp_emit_bc_start_pass                             build/py/emitbc.o
                                                  build/py/compile.o
mp_emit_bc_store_comp                             build/py/emitbc.o
                                                  build/py/compile.o
mp_emit_bc_store_global                           build/py/emitbc.o
mp_emit_bc_store_local                            build/py/emitbc.o
mp_emit_bc_store_map                              build/py/emitbc.o
                                                  build/py/compile.o
mp_emit_bc_subscr                                 build/py/emitbc.o
                                                  build/py/compile.o
mp_emit_bc_unary_op                               build/py/emitbc.o
                                                  build/py/compile.o
mp_emit_bc_unpack_ex                              build/py/emitbc.o
                                                  build/py/compile.o
mp_emit_bc_unpack_sequence                        build/py/emitbc.o
                                                  build/py/compile.o
mp_emit_bc_unwind_jump                            build/py/emitbc.o
                                                  build/py/compile.o
mp_emit_bc_with_cleanup                           build/py/emitbc.o
                                                  build/py/compile.o
mp_emit_bc_yield                                  build/py/emitbc.o
                                                  build/py/compile.o
mp_emit_common_get_id_for_modification            build/py/emitcommon.o
                                                  build/py/compile.o
mp_emit_common_id_op                              build/py/emitcommon.o
                                                  build/py/compile.o
mp_emit_glue_assign_bytecode                      build/py/emitglue.o
                                                  build/py/emitbc.o
mp_emit_glue_new_raw_code                         build/py/emitglue.o
                                                  build/py/scope.o
mp_execute_bytecode                               build/py/vm.o
                                                  build/py/objgenerator.o
                                                  build/py/objfun.o
mp_find_frozen_module                             build/py/frozenmod.o
                                                  build/lib/utils/pyexec.o
                                                  build/py/builtinimport.o
mp_frozen_mpy_content                             build/build/_frozen_mpy.o
                                                  build/py/frozenmod.o
mp_frozen_mpy_names                               build/build/_frozen_mpy.o
                                                  build/py/frozenmod.o
mp_frozen_stat                                    build/py/frozenmod.o
                                                  build/lib/utils/pyexec.o
                                                  build/py/builtinimport.o
mp_generic_unary_op                               build/py/obj.o
                                                  build/py/objtype.o
                                                  build/py/objsingleton.o
                                                  build/py/objnone.o
                                                  build/py/objgenerator.o
                                                  build/py/objfun.o
mp_get_buffer                                     build/py/obj.o
                                                  build/py/stream.o
                                                  build/py/objstr.o
mp_get_buffer_raise                               build/py/obj.o
                                                  build/py/builtinevex.o
                                                  build/py/stream.o
                                                  build/py/objstr.o
                                                  build/py/objint.o
mp_get_index                                      build/py/obj.o
                                                  build/py/sequence.o
                                                  build/py/objtuple.o
                                                  build/py/objstr.o
                                                  build/py/objrange.o
                                                  build/py/objlist.o
mp_get_stream_raise                               build/py/stream.o
mp_getiter                                        build/py/runtime.o
                                                  build/py/vm.o
                                                  build/py/modbuiltins.o
                                                  build/py/objzip.o
                                                  build/py/objtuple.o
                                                  build/py/objstr.o
                                                  build/py/objmap.o
                                                  build/py/objlist.o
                                                  build/py/objdict.o
mp_hal_stdin_rx_chr                               build/mhalport.o
                                                  build/lib/mp-readline/readline.o
                                                  build/lib/utils/pyexec.o
mp_hal_stdout_tx_str                              build/lib/utils/stdout_helpers.o
                                                  build/lib/mp-readline/readline.o
                                                  build/lib/utils/pyexec.o
mp_hal_stdout_tx_strn                             build/mhalport.o
                                                  build/lib/mp-readline/readline.o
                                                  build/lib/utils/pyexec.o
                                                  build/lib/utils/stdout_helpers.o
                                                  build/main.o
mp_hal_stdout_tx_strn_cooked                      build/lib/utils/stdout_helpers.o
                                                  build/lib/utils/printf.o
                                                  build/py/mpprint.o
mp_handle_pending                                 build/py/scheduler.o
                                                  build/lib/utils/pyexec.o
mp_identity                                       build/py/obj.o
mp_identity_getiter                               build/py/obj.o
                                                  build/py/objzip.o
                                                  build/py/objrange.o
                                                  build/py/objpolyiter.o
                                                  build/py/objmap.o
                                                  build/py/objgetitemiter.o
                                                  build/py/objgenerator.o
                                                  build/py/objdict.o
                                                  build/py/runtime.o
mp_identity_obj                                   build/py/obj.o
                                                  build/py/modmicropython.o
mp_import_all                                     build/py/runtime.o
                                                  build/py/vm.o
mp_import_from                                    build/py/runtime.o
                                                  build/py/vm.o
mp_import_name                                    build/py/runtime.o
                                                  build/py/vm.o
mp_import_stat                                    build/main.o
                                                  build/lib/utils/pyexec.o
                                                  build/py/builtinimport.o
mp_init                                           build/py/runtime.o
                                                  build/main.o
mp_int_format_size                                build/py/objint.o
mp_iternext                                       build/py/runtime.o
                                                  build/py/modbuiltins.o
                                                  build/py/objzip.o
                                                  build/py/objtuple.o
                                                  build/py/objstr.o
                                                  build/py/objmap.o
                                                  build/py/objlist.o
                                                  build/py/objdict.o
mp_iternext_allow_raise                           build/py/runtime.o
                                                  build/py/vm.o
                                                  build/py/modbuiltins.o
mp_lexer_free                                     build/py/lexer.o
                                                  build/py/parse.o
mp_lexer_new                                      build/py/lexer.o
                                                  build/lib/utils/pyexec.o
mp_lexer_new_from_file                            build/main.o
                                                  build/lib/utils/pyexec.o
                                                  build/py/builtinimport.o
mp_lexer_new_from_str_len                         build/py/lexer.o
                                                  build/lib/utils/pyexec.o
                                                  build/main.o
                                                  build/py/builtinevex.o
mp_lexer_to_next                                  build/py/lexer.o
                                                  build/py/parse.o
mp_load_attr                                      build/py/runtime.o
                                                  build/py/vm.o
mp_load_build_class                               build/py/runtime.o
                                                  build/py/vm.o
mp_load_global                                    build/py/runtime.o
                                                  build/py/vm.o
mp_load_method                                    build/py/runtime.o
                                                  build/py/vm.o
                                                  build/py/modbuiltins.o
                                                  build/py/objtype.o
mp_load_method_maybe                              build/py/runtime.o
                                                  build/py/builtinimport.o
                                                  build/py/objtype.o
mp_load_method_protected                          build/py/runtime.o
                                                  build/py/repl.o
                                                  build/py/modbuiltins.o
mp_load_name                                      build/py/runtime.o
                                                  build/py/vm.o
mp_load_super_method                              build/py/objtype.o
                                                  build/py/vm.o
mp_make_closure_from_raw_code                     build/py/emitglue.o
                                                  build/py/vm.o
mp_make_function_from_raw_code                    build/py/emitglue.o
                                                  build/lib/utils/pyexec.o
                                                  build/py/vm.o
                                                  build/py/builtinimport.o
                                                  build/py/compile.o
mp_make_raise_obj                                 build/py/runtime.o
                                                  build/py/vm.o
mp_map_clear                                      build/py/map.o
                                                  build/py/objdict.o
mp_map_deinit                                     build/py/map.o
mp_map_init                                       build/py/map.o
                                                  build/py/objtype.o
                                                  build/py/objdict.o
mp_map_init_fixed_table                           build/py/map.o
                                                  build/py/objfun.o
                                                  build/py/objdict.o
                                                  build/py/argcheck.o
mp_map_lookup                                     build/py/map.o
                                                  build/py/bc.o
                                                  build/py/builtinimport.o
                                                  build/py/objtype.o
                                                  build/py/objstr.o
                                                  build/py/objmodule.o
                                                  build/py/objdict.o
                                                  build/py/argcheck.o
                                                  build/py/runtime.o
mp_module___main__                                build/py/runtime.o
                                                  build/py/repl.o
                                                  build/py/objmodule.o
mp_module_builtins                                build/py/modbuiltins.o
                                                  build/py/objmodule.o
mp_module_builtins_globals                        build/py/modbuiltins.o
                                                  build/py/runtime.o
mp_module_get                                     build/py/objmodule.o
                                                  build/py/builtinimport.o
mp_module_micropython                             build/py/modmicropython.o
                                                  build/py/objmodule.o
mp_module_register                                build/py/objmodule.o
mp_obj_cast_to_native_base                        build/py/objtype.o
                                                  build/py/objtuple.o
mp_obj_cell_get                                   build/py/objcell.o
                                                  build/py/vm.o
mp_obj_cell_set                                   build/py/objcell.o
                                                  build/py/vm.o
                                                  build/py/modbuiltins.o
mp_obj_code_get_name                              build/py/objfun.o
mp_obj_dict_copy                                  build/py/objdict.o
mp_obj_dict_delete                                build/py/objdict.o
                                                  build/py/objmodule.o
                                                  build/py/runtime.o
mp_obj_dict_get                                   build/py/objdict.o
                                                  build/py/builtinimport.o
mp_obj_dict_init                                  build/py/objdict.o
                                                  build/py/runtime.o
mp_obj_dict_len                                   build/py/objdict.o
                                                  build/py/runtime.o
mp_obj_dict_make_new                              build/py/objdict.o
                                                  build/py/objtype.o
mp_obj_dict_store                                 build/py/objdict.o
                                                  build/py/bc.o
                                                  build/py/vm.o
                                                  build/py/builtinimport.o
                                                  build/py/objmodule.o
                                                  build/py/runtime.o
mp_obj_equal                                      build/py/obj.o
                                                  build/py/sequence.o
                                                  build/py/objdict.o
                                                  build/py/map.o
                                                  build/py/runtime.o
mp_obj_equal_not_equal                            build/py/obj.o
                                                  build/py/runtime.o
mp_obj_exception_add_traceback                    build/py/objexcept.o
                                                  build/py/vm.o
                                                  build/py/parsenum.o
                                                  build/py/compile.o
                                                  build/py/parse.o
mp_obj_exception_attr                             build/py/objexcept.o
mp_obj_exception_clear_traceback                  build/py/objexcept.o
mp_obj_exception_get_traceback                    build/py/objexcept.o
                                                  build/py/obj.o
mp_obj_exception_get_value                        build/py/objexcept.o
                                                  build/py/vm.o
mp_obj_exception_make_new                         build/py/objexcept.o
                                                  build/py/objtype.o
mp_obj_exception_match                            build/py/objexcept.o
                                                  build/py/vm.o
                                                  build/py/runtime.o
mp_obj_exception_print                            build/py/objexcept.o
mp_obj_fun_get_name                               build/py/objfun.o
                                                  build/py/objgenerator.o
mp_obj_gen_resume                                 build/py/objgenerator.o
                                                  build/py/runtime.o
mp_obj_get_array                                  build/py/obj.o
                                                  build/py/objstr.o
                                                  build/py/runtime.o
mp_obj_get_array_fixed_n                          build/py/obj.o
mp_obj_get_int                                    build/py/obj.o
                                                  build/py/modmicropython.o
                                                  build/py/modbuiltins.o
                                                  build/py/binary.o
                                                  build/py/stream.o
                                                  build/py/objstr.o
                                                  build/py/objrange.o
                                                  build/py/objint.o
                                                  build/py/argcheck.o
                                                  build/py/mpprint.o
mp_obj_get_int_maybe                              build/py/obj.o
                                                  build/py/objtuple.o
                                                  build/py/objstr.o
                                                  build/py/objlist.o
mp_obj_get_int_truncated                          build/py/obj.o
                                                  build/py/stream.o
                                                  build/py/objtype.o
mp_obj_get_type                                   build/py/obj.o
                                                  build/py/vm.o
                                                  build/py/modbuiltins.o
                                                  build/py/stream.o
                                                  build/py/sequence.o
                                                  build/py/opmethods.o
                                                  build/py/objtype.o
                                                  build/py/objtuple.o
                                                  build/py/objstr.o
                                                  build/py/objgenerator.o
                                                  build/py/objexcept.o
                                                  build/py/runtime.o
mp_obj_get_type_str                               build/py/obj.o
                                                  build/py/objtype.o
mp_obj_id                                         build/py/obj.o
                                                  build/py/modbuiltins.o
mp_obj_instance_call                              build/py/objtype.o
                                                  build/py/obj.o
mp_obj_instance_getiter                           build/py/objtype.o
                                                  build/py/runtime.o
mp_obj_instance_is_callable                       build/py/objtype.o
                                                  build/py/obj.o
mp_obj_instance_make_new                          build/py/objtype.o
                                                  build/py/runtime.o
mp_obj_int_binary_op                              build/py/objint.o
mp_obj_int_binary_op_extra_cases                  build/py/objint.o
mp_obj_int_formatted                              build/py/objint.o
                                                  build/py/mpprint.o
mp_obj_int_get_checked                            build/py/objint.o
                                                  build/py/obj.o
mp_obj_int_get_truncated                          build/py/objint.o
                                                  build/py/obj.o
mp_obj_int_print                                  build/py/objint.o
mp_obj_int_sign                                   build/py/objint.o
                                                  build/py/parse.o
                                                  build/py/mpprint.o
mp_obj_int_unary_op                               build/py/objint.o
mp_obj_is_callable                                build/py/obj.o
                                                  build/py/modbuiltins.o
mp_obj_is_exception_instance                      build/py/objexcept.o
                                                  build/py/obj.o
                                                  build/py/runtime.o
mp_obj_is_exception_type                          build/py/objexcept.o
                                                  build/py/runtime.o
mp_obj_is_package                                 build/py/builtinimport.o
                                                  build/py/runtime.o
mp_obj_is_subclass_fast                           build/py/objtype.o
                                                  build/lib/utils/pyexec.o
                                                  build/py/vm.o
                                                  build/py/objtuple.o
                                                  build/py/objgenerator.o
                                                  build/py/objexcept.o
                                                  build/py/runtime.o
mp_obj_is_true                                    build/py/obj.o
                                                  build/py/vm.o
                                                  build/py/modbuiltins.o
                                                  build/py/stream.o
                                                  build/py/objbool.o
                                                  build/py/argcheck.o
                                                  build/py/runtime.o
mp_obj_len                                        build/py/obj.o
                                                  build/py/modbuiltins.o
mp_obj_len_maybe                                  build/py/obj.o
                                                  build/py/objstr.o
mp_obj_list_append                                build/py/objlist.o
                                                  build/py/vm.o
                                                  build/py/modbuiltins.o
                                                  build/py/stream.o
                                                  build/py/sequence.o
                                                  build/py/objstr.o
                                                  build/py/runtime.o
mp_obj_list_get                                   build/py/objlist.o
                                                  build/py/obj.o
mp_obj_list_init                                  build/py/objlist.o
mp_obj_list_remove                                build/py/objlist.o
mp_obj_list_set_len                               build/py/objlist.o
                                                  build/py/runtime.o
mp_obj_list_sort                                  build/py/objlist.o
                                                  build/py/modbuiltins.o
mp_obj_list_store                                 build/py/objlist.o
mp_obj_new_bound_meth                             build/py/objboundmeth.o
                                                  build/py/modbuiltins.o
                                                  build/py/runtime.o
mp_obj_new_bytes                                  build/py/objstr.o
                                                  build/py/compile.o
mp_obj_new_cell                                   build/py/objcell.o
                                                  build/py/bc.o
mp_obj_new_closure                                build/py/objclosure.o
                                                  build/py/emitglue.o
mp_obj_new_dict                                   build/py/objdict.o
                                                  build/py/bc.o
                                                  build/py/vm.o
                                                  build/py/modbuiltins.o
                                                  build/py/objmodule.o
mp_obj_new_exception                              build/py/objexcept.o
                                                  build/py/runtime.o
mp_obj_new_exception_arg1                         build/py/objexcept.o
                                                  build/py/objstr.o
                                                  build/py/objgenerator.o
                                                  build/py/objdict.o
                                                  build/py/runtime.o
mp_obj_new_exception_args                         build/py/objexcept.o
mp_obj_new_exception_msg                          build/py/objexcept.o
                                                  build/py/vm.o
                                                  build/py/objgenerator.o
                                                  build/py/runtime.o
                                                  build/py/parsenum.o
                                                  build/py/compile.o
                                                  build/py/parse.o
mp_obj_new_exception_msg_varg                     build/py/objexcept.o
mp_obj_new_exception_msg_vlist                    build/py/objexcept.o
                                                  build/py/runtime.o
mp_obj_new_fun_bc                                 build/py/objfun.o
                                                  build/py/emitglue.o
mp_obj_new_getitem_iter                           build/py/objgetitemiter.o
                                                  build/py/runtime.o
mp_obj_new_int                                    build/py/objint.o
                                                  build/py/modbuiltins.o
                                                  build/py/binary.o
                                                  build/py/stream.o
                                                  build/py/objrange.o
                                                  build/py/obj.o
                                                  build/py/runtime.o
mp_obj_new_int_from_ll                            build/py/objint.o
                                                  build/py/binary.o
                                                  build/py/runtime.o
mp_obj_new_int_from_str_len                       build/py/objint.o
                                                  build/py/parsenum.o
mp_obj_new_int_from_uint                          build/py/objint.o
                                                  build/py/binary.o
                                                  build/py/stream.o
                                                  build/py/obj.o
mp_obj_new_int_from_ull                           build/py/objint.o
                                                  build/py/binary.o
mp_obj_new_list                                   build/py/objlist.o
                                                  build/py/vm.o
                                                  build/py/modbuiltins.o
                                                  build/py/stream.o
                                                  build/py/sequence.o
                                                  build/py/objstr.o
                                                  build/py/runtime.o
mp_obj_new_module                                 build/py/objmodule.o
                                                  build/py/builtinimport.o
mp_obj_new_str                                    build/py/objstr.o
                                                  build/py/builtinimport.o
                                                  build/py/binary.o
mp_obj_new_str_copy                               build/py/objstr.o
                                                  build/py/parse.o
mp_obj_new_str_from_vstr                          build/py/objstr.o
                                                  build/py/modbuiltins.o
                                                  build/py/stream.o
                                                  build/py/objint.o
mp_obj_new_str_of_type                            build/py/objstr.o
mp_obj_new_str_via_qstr                           build/py/objstr.o
                                                  build/py/modbuiltins.o
mp_obj_new_tuple                                  build/py/objtuple.o
                                                  build/py/bc.o
                                                  build/py/vm.o
                                                  build/py/modbuiltins.o
                                                  build/py/objzip.o
                                                  build/py/objdict.o
                                                  build/py/runtime.o
mp_obj_new_type                                   build/py/objtype.o
mp_obj_print                                      build/py/obj.o
mp_obj_print_exception                            build/py/obj.o
                                                  build/lib/utils/pyexec.o
                                                  build/main.o
                                                  build/py/runtime_utils.o
mp_obj_print_helper                               build/py/obj.o
                                                  build/py/modbuiltins.o
                                                  build/py/objtype.o
                                                  build/py/objtuple.o
                                                  build/py/objstr.o
                                                  build/py/objlist.o
                                                  build/py/objexcept.o
                                                  build/py/objdict.o
mp_obj_str_binary_op                              build/py/objstr.o
                                                  build/py/objint.o
                                                  build/py/runtime.o
mp_obj_str_equal                                  build/py/objstr.o
                                                  build/py/obj.o
mp_obj_str_format                                 build/py/objstr.o
                                                  build/py/modbuiltins.o
mp_obj_str_get_buffer                             build/py/objstr.o
mp_obj_str_get_data                               build/py/objstr.o
                                                  build/py/modbuiltins.o
                                                  build/py/builtinimport.o
                                                  build/py/objint.o
                                                  build/py/runtime.o
mp_obj_str_get_qstr                               build/py/objstr.o
                                                  build/py/modbuiltins.o
                                                  build/py/builtinimport.o
                                                  build/py/objtype.o
                                                  build/py/runtime.o
mp_obj_str_get_str                                build/py/objstr.o
                                                  build/py/objmodule.o
                                                  build/py/runtime.o
mp_obj_str_intern                                 build/py/objstr.o
mp_obj_str_intern_checked                         build/py/objstr.o
                                                  build/py/runtime.o
mp_obj_str_make_new                               build/py/objstr.o
mp_obj_str_split                                  build/py/objstr.o
mp_obj_subscr                                     build/py/obj.o
                                                  build/py/vm.o
                                                  build/py/objtype.o
mp_obj_tuple_binary_op                            build/py/objtuple.o
mp_obj_tuple_del                                  build/py/objtuple.o
                                                  build/py/objzip.o
mp_obj_tuple_get                                  build/py/objtuple.o
                                                  build/py/objtype.o
                                                  build/py/obj.o
mp_obj_tuple_getiter                              build/py/objtuple.o
mp_obj_tuple_print                                build/py/objtuple.o
                                                  build/py/objexcept.o
mp_obj_tuple_subscr                               build/py/objtuple.o
mp_obj_tuple_unary_op                             build/py/objtuple.o
mp_op_contains_obj                                build/py/opmethods.o
mp_op_delitem_obj                                 build/py/opmethods.o
                                                  build/py/objdict.o
mp_op_getitem_obj                                 build/py/opmethods.o
                                                  build/py/objdict.o
mp_op_setitem_obj                                 build/py/opmethods.o
                                                  build/py/objdict.o
mp_pairheap_delete                                build/py/pairheap.o
mp_pairheap_meld                                  build/py/pairheap.o
mp_pairheap_pairing                               build/py/pairheap.o
mp_parse                                          build/py/parse.o
                                                  build/lib/utils/pyexec.o
                                                  build/main.o
                                                  build/py/runtime.o
mp_parse_compile_execute                          build/py/runtime.o
                                                  build/py/builtinevex.o
                                                  build/py/builtinimport.o
mp_parse_node_extract_list                        build/py/parse.o
                                                  build/py/compile.o
mp_parse_node_get_int_maybe                       build/py/parse.o
mp_parse_node_is_const_false                      build/py/parse.o
                                                  build/py/compile.o
mp_parse_node_is_const_true                       build/py/parse.o
                                                  build/py/compile.o
mp_parse_num_base                                 build/py/parsenumbase.o
                                                  build/py/parsenum.o
mp_parse_num_decimal                              build/py/parsenum.o
                                                  build/py/parse.o
mp_parse_num_integer                              build/py/parsenum.o
                                                  build/py/objint.o
                                                  build/py/parse.o
mp_parse_tree_clear                               build/py/parse.o
                                                  build/py/compile.o
mp_plat_print                                     build/py/mpprint.o
                                                  build/lib/mp-readline/readline.o
                                                  build/lib/utils/pyexec.o
                                                  build/lib/utils/printf.o
                                                  build/main.o
                                                  build/py/modbuiltins.o
                                                  build/py/obj.o
                                                  build/py/runtime_utils.o
                                                  build/py/gc.o
mp_print_mp_int                                   build/py/mpprint.o
                                                  build/py/objstr.o
mp_print_str                                      build/py/mpprint.o
                                                  build/py/repl.o
                                                  build/py/modbuiltins.o
                                                  build/py/objtype.o
                                                  build/py/objtuple.o
                                                  build/py/objstr.o
                                                  build/py/objrange.o
                                                  build/py/objnone.o
                                                  build/py/objlist.o
                                                  build/py/objint.o
                                                  build/py/objexcept.o
                                                  build/py/objdict.o
                                                  build/py/objbool.o
                                                  build/py/obj.o
                                                  build/py/gc.o
mp_print_strn                                     build/py/mpprint.o
                                                  build/py/modbuiltins.o
                                                  build/py/objstr.o
mp_printf                                         build/py/mpprint.o
                                                  build/py/repl.o
                                                  build/py/objtype.o
                                                  build/py/objstr.o
                                                  build/py/objsingleton.o
                                                  build/py/objrange.o
                                                  build/py/objmodule.o
                                                  build/py/objgenerator.o
                                                  build/py/obj.o
                                                  build/py/gc.o
mp_qstr_const_pool                                build/py/qstr.o
                                                  build/build/_frozen_mpy.o
mp_qstr_frozen_const_pool                         build/build/_frozen_mpy.o
                                                  build/py/qstr.o
mp_raise_NotImplementedError                      build/py/runtime.o
                                                  build/py/modbuiltins.o
                                                  build/py/objstr.o
                                                  build/py/lexer.o
mp_raise_OSError                                  build/py/runtime.o
                                                  build/main.o
                                                  build/py/stream.o
mp_raise_TypeError                                build/py/runtime.o
                                                  build/py/bc.o
                                                  build/py/modbuiltins.o
                                                  build/py/builtinevex.o
                                                  build/py/objtype.o
                                                  build/py/objstr.o
                                                  build/py/objgenerator.o
                                                  build/py/objdict.o
                                                  build/py/obj.o
                                                  build/py/argcheck.o
mp_raise_ValueError                               build/py/runtime.o
                                                  build/py/modbuiltins.o
                                                  build/py/builtinimport.o
                                                  build/py/binary.o
                                                  build/py/sequence.o
                                                  build/py/objstr.o
                                                  build/py/objrange.o
                                                  build/py/objint.o
                                                  build/py/objgenerator.o
                                                  build/py/objdict.o
                                                  build/py/obj.o
                                                  build/py/parsenum.o
mp_raise_msg                                      build/py/runtime.o
                                                  build/lib/utils/pyexec.o
                                                  build/py/modbuiltins.o
                                                  build/py/builtinimport.o
                                                  build/py/stream.o
                                                  build/py/objstr.o
                                                  build/py/objlist.o
                                                  build/py/objint.o
                                                  build/py/objgenerator.o
                                                  build/py/objdict.o
                                                  build/py/obj.o
                                                  build/py/vstr.o
                                                  build/py/qstr.o
mp_raise_msg_varg                                 build/py/runtime.o
                                                  build/py/bc.o
mp_reader_new_mem                                 build/py/reader.o
                                                  build/py/lexer.o
mp_repl_autocomplete                              build/py/repl.o
                                                  build/lib/mp-readline/readline.o
mp_repl_continue_with_input                       build/py/repl.o
                                                  build/lib/utils/pyexec.o
mp_resume                                         build/py/runtime.o
                                                  build/py/vm.o
mp_seq_cmp_bytes                                  build/py/sequence.o
                                                  build/py/objstr.o
mp_seq_cmp_objs                                   build/py/sequence.o
                                                  build/py/objtuple.o
                                                  build/py/objlist.o
mp_seq_count_obj                                  build/py/sequence.o
                                                  build/py/objtuple.o
                                                  build/py/objlist.o
mp_seq_extract_slice                              build/py/sequence.o
mp_seq_index_obj                                  build/py/sequence.o
                                                  build/py/objtuple.o
                                                  build/py/objlist.o
mp_seq_multiply                                   build/py/sequence.o
                                                  build/py/objtuple.o
                                                  build/py/objstr.o
                                                  build/py/objlist.o
mp_setup_code_state                               build/py/bc.o
                                                  build/py/objgenerator.o
                                                  build/py/objfun.o
mp_small_int_floor_divide                         build/py/smallint.o
                                                  build/py/runtime.o
mp_small_int_modulo                               build/py/smallint.o
                                                  build/py/runtime.o
mp_small_int_mul_overflow                         build/py/smallint.o
                                                  build/py/runtime.o
                                                  build/py/parsenum.o
mp_stack_ctrl_init                                build/py/stackctrl.o
mp_stack_set_top                                  build/py/stackctrl.o
mp_stack_usage                                    build/py/stackctrl.o
mp_state_ctx                                      build/py/mpstate.o
                                                  build/lib/mp-readline/readline.o
                                                  build/lib/utils/pyexec.o
                                                  build/py/repl.o
                                                  build/py/vm.o
                                                  build/py/modmicropython.o
                                                  build/py/modbuiltins.o
                                                  build/py/builtinevex.o
                                                  build/py/builtinimport.o
                                                  build/py/objmodule.o
                                                  build/py/objgenerator.o
                                                  build/py/objfun.o
                                                  build/py/objexcept.o
                                                  build/py/stackctrl.o
                                                  build/py/scheduler.o
                                                  build/py/runtime.o
                                                  build/py/compile.o
                                                  build/py/lexer.o
                                                  build/py/qstr.o
                                                  build/py/gc.o
                                                  build/py/nlrthumb.o
                                                  build/py/nlr.o
mp_store_attr                                     build/py/runtime.o
                                                  build/py/vm.o
                                                  build/py/modbuiltins.o
                                                  build/py/builtinimport.o
mp_store_global                                   build/py/runtime.o
                                                  build/py/vm.o
mp_store_name                                     build/py/runtime.o
                                                  build/py/vm.o
mp_str_print_quoted                               build/py/objstr.o
mp_stream_close                                   build/py/stream.o
mp_stream_close_obj                               build/py/stream.o
mp_stream_flush_obj                               build/py/stream.o
mp_stream_ioctl_obj                               build/py/stream.o
mp_stream_read1_obj                               build/py/stream.o
mp_stream_read_obj                                build/py/stream.o
mp_stream_readinto_obj                            build/py/stream.o
mp_stream_rw                                      build/py/stream.o
mp_stream_seek_obj                                build/py/stream.o
mp_stream_tell_obj                                build/py/stream.o
mp_stream_unbuffered_iter                         build/py/stream.o
mp_stream_unbuffered_readline_obj                 build/py/stream.o
mp_stream_unbuffered_readlines_obj                build/py/stream.o
mp_stream_write                                   build/py/stream.o
mp_stream_write1_obj                              build/py/stream.o
mp_stream_write_adaptor                           build/py/stream.o
mp_stream_write_obj                               build/py/stream.o
mp_type_ArithmeticError                           build/py/objexcept.o
                                                  build/py/modbuiltins.o
mp_type_AssertionError                            build/py/objexcept.o
                                                  build/py/modbuiltins.o
mp_type_AttributeError                            build/py/objexcept.o
                                                  build/py/modbuiltins.o
                                                  build/py/runtime.o
mp_type_BaseException                             build/py/objexcept.o
                                                  build/py/modbuiltins.o
mp_type_EOFError                                  build/py/objexcept.o
                                                  build/py/modbuiltins.o
mp_type_Exception                                 build/py/objexcept.o
                                                  build/py/modbuiltins.o
mp_type_GeneratorExit                             build/py/objexcept.o
                                                  build/py/vm.o
                                                  build/py/modbuiltins.o
                                                  build/py/objgenerator.o
                                                  build/py/runtime.o
mp_type_ImportError                               build/py/objexcept.o
                                                  build/py/modbuiltins.o
                                                  build/py/builtinimport.o
                                                  build/py/runtime.o
mp_type_IndentationError                          build/py/objexcept.o
                                                  build/py/modbuiltins.o
                                                  build/py/parse.o
mp_type_IndexError                                build/py/objexcept.o
                                                  build/py/modbuiltins.o
                                                  build/py/objstr.o
                                                  build/py/objlist.o
                                                  build/py/objgetitemiter.o
                                                  build/py/obj.o
mp_type_KeyError                                  build/py/objexcept.o
                                                  build/py/modbuiltins.o
                                                  build/py/objstr.o
                                                  build/py/objdict.o
mp_type_KeyboardInterrupt                         build/py/objexcept.o
                                                  build/lib/utils/pyexec.o
                                                  build/py/modbuiltins.o
mp_type_LookupError                               build/py/objexcept.o
                                                  build/py/modbuiltins.o
mp_type_MemoryError                               build/py/objexcept.o
                                                  build/py/modbuiltins.o
                                                  build/py/runtime.o
mp_type_NameError                                 build/py/objexcept.o
                                                  build/py/vm.o
                                                  build/py/modbuiltins.o
                                                  build/py/runtime.o
mp_type_NoneType                                  build/py/objnone.o
                                                  build/py/obj.o
mp_type_NotImplementedError                       build/py/objexcept.o
                                                  build/py/vm.o
                                                  build/py/modbuiltins.o
                                                  build/py/runtime.o
mp_type_OSError                                   build/py/objexcept.o
                                                  build/py/modbuiltins.o
                                                  build/py/stream.o
                                                  build/py/runtime.o
mp_type_OverflowError                             build/py/objexcept.o
                                                  build/py/modbuiltins.o
                                                  build/py/objint.o
mp_type_RuntimeError                              build/py/objexcept.o
                                                  build/py/vm.o
                                                  build/py/modbuiltins.o
                                                  build/py/objgenerator.o
                                                  build/py/runtime.o
                                                  build/py/vstr.o
                                                  build/py/qstr.o
mp_type_StopIteration                             build/py/objexcept.o
                                                  build/py/vm.o
                                                  build/py/modbuiltins.o
                                                  build/py/objgetitemiter.o
                                                  build/py/objgenerator.o
                                                  build/py/runtime.o
mp_type_SyntaxError                               build/py/objexcept.o
                                                  build/py/modbuiltins.o
                                                  build/py/parsenum.o
                                                  build/py/compile.o
                                                  build/py/parse.o
mp_type_SystemExit                                build/py/objexcept.o
                                                  build/lib/utils/pyexec.o
                                                  build/py/modbuiltins.o
mp_type_TypeError                                 build/py/objexcept.o
                                                  build/py/bc.o
                                                  build/py/modbuiltins.o
                                                  build/py/runtime.o
mp_type_ValueError                                build/py/objexcept.o
                                                  build/py/modbuiltins.o
                                                  build/py/runtime.o
                                                  build/py/parsenum.o
mp_type_ZeroDivisionError                         build/py/objexcept.o
                                                  build/py/modbuiltins.o
                                                  build/py/runtime.o
mp_type_bool                                      build/py/objbool.o
                                                  build/py/modbuiltins.o
                                                  build/py/obj.o
mp_type_bytes                                     build/py/objstr.o
                                                  build/build/_frozen_mpy.o
                                                  build/py/modbuiltins.o
                                                  build/py/stream.o
                                                  build/py/objint.o
                                                  build/py/obj.o
                                                  build/py/parse.o
                                                  build/py/gc.o
mp_type_classmethod                               build/py/objtype.o
                                                  build/py/modbuiltins.o
                                                  build/py/objint.o
                                                  build/py/runtime.o
mp_type_dict                                      build/py/objdict.o
                                                  build/py/modmicropython.o
                                                  build/py/modbuiltins.o
                                                  build/py/builtinevex.o
                                                  build/py/objtuple.o
                                                  build/py/objstr.o
                                                  build/py/objlist.o
                                                  build/py/objint.o
                                                  build/py/objgenerator.o
                                                  build/py/runtime.o
                                                  build/py/gc.o
mp_type_fun_bc                                    build/py/objfun.o
                                                  build/py/gc.o
mp_type_fun_builtin_0                             build/py/objfun.o
                                                  build/py/modmicropython.o
                                                  build/py/modbuiltins.o
mp_type_fun_builtin_1                             build/py/objfun.o
                                                  build/py/modbuiltins.o
                                                  build/py/stream.o
                                                  build/py/objstr.o
                                                  build/py/objlist.o
                                                  build/py/objgenerator.o
                                                  build/py/objdict.o
                                                  build/py/obj.o
mp_type_fun_builtin_2                             build/py/objfun.o
                                                  build/py/modbuiltins.o
                                                  build/py/stream.o
                                                  build/py/opmethods.o
                                                  build/py/objtype.o
                                                  build/py/objtuple.o
                                                  build/py/objstr.o
                                                  build/py/objlist.o
                                                  build/py/objgenerator.o
mp_type_fun_builtin_3                             build/py/objfun.o
                                                  build/py/modbuiltins.o
                                                  build/py/opmethods.o
                                                  build/py/objlist.o
mp_type_fun_builtin_var                           build/py/objfun.o
                                                  build/main.o
                                                  build/py/modmicropython.o
                                                  build/py/modbuiltins.o
                                                  build/py/builtinevex.o
                                                  build/py/builtinimport.o
                                                  build/py/stream.o
                                                  build/py/objtype.o
                                                  build/py/objtuple.o
                                                  build/py/objstr.o
                                                  build/py/objlist.o
                                                  build/py/objint.o
                                                  build/py/objgenerator.o
                                                  build/py/objdict.o
mp_type_gen_instance                              build/py/objgenerator.o
                                                  build/py/runtime.o
mp_type_gen_wrap                                  build/py/objgenerator.o
                                                  build/py/emitglue.o
mp_type_int                                       build/py/objint.o
                                                  build/py/modbuiltins.o
                                                  build/py/objtype.o
                                                  build/py/objstr.o
                                                  build/py/obj.o
                                                  build/py/parse.o
                                                  build/py/mpprint.o
mp_type_list                                      build/py/objlist.o
                                                  build/py/modbuiltins.o
                                                  build/py/objstr.o
                                                  build/py/objint.o
                                                  build/py/obj.o
                                                  build/py/runtime.o
                                                  build/py/gc.o
mp_type_map                                       build/py/objmap.o
                                                  build/py/modbuiltins.o
mp_type_module                                    build/py/objmodule.o
                                                  build/py/modmicropython.o
                                                  build/py/modbuiltins.o
                                                  build/py/runtime.o
                                                  build/py/gc.o
mp_type_object                                    build/py/objobject.o
                                                  build/py/modbuiltins.o
                                                  build/py/objtype.o
mp_type_polymorph_iter                            build/py/objpolyiter.o
                                                  build/py/objtuple.o
                                                  build/py/objstr.o
                                                  build/py/objlist.o
mp_type_range                                     build/py/objrange.o
                                                  build/py/modbuiltins.o
mp_type_singleton                                 build/py/objsingleton.o
mp_type_staticmethod                              build/py/objtype.o
                                                  build/py/modbuiltins.o
                                                  build/py/runtime.o
mp_type_str                                       build/py/objstr.o
                                                  build/build/_frozen_mpy.o
                                                  build/py/modbuiltins.o
                                                  build/py/stream.o
                                                  build/py/objexcept.o
                                                  build/py/obj.o
                                                  build/py/map.o
                                                  build/py/parse.o
                                                  build/py/gc.o
mp_type_super                                     build/py/objtype.o
                                                  build/py/modbuiltins.o
mp_type_tuple                                     build/py/objtuple.o
                                                  build/py/modbuiltins.o
                                                  build/py/objtype.o
                                                  build/py/objstr.o
                                                  build/py/objint.o
                                                  build/py/objexcept.o
                                                  build/py/obj.o
                                                  build/py/runtime.o
                                                  build/py/gc.o
mp_type_type                                      build/py/objtype.o
                                                  build/py/modbuiltins.o
                                                  build/py/objzip.o
                                                  build/py/objtuple.o
                                                  build/py/objstr.o
                                                  build/py/objsingleton.o
                                                  build/py/objrange.o
                                                  build/py/objnone.o
                                                  build/py/objpolyiter.o
                                                  build/py/objobject.o
                                                  build/py/objmodule.o
                                                  build/py/objmap.o
                                                  build/py/objlist.o
                                                  build/py/objint.o
                                                  build/py/objgetitemiter.o
                                                  build/py/objgenerator.o
                                                  build/py/objfun.o
                                                  build/py/objexcept.o
                                                  build/py/objdict.o
                                                  build/py/objclosure.o
                                                  build/py/objcell.o
                                                  build/py/objboundmeth.o
                                                  build/py/objbool.o
mp_type_zip                                       build/py/objzip.o
                                                  build/py/modbuiltins.o
mp_unary_op                                       build/py/runtime.o
                                                  build/py/vm.o
                                                  build/py/modbuiltins.o
                                                  build/py/objtype.o
                                                  build/py/objtuple.o
                                                  build/py/objint.o
                                                  build/py/objbool.o
                                                  build/py/obj.o
                                                  build/py/map.o
                                                  build/py/parse.o
mp_unary_op_method_name                           build/py/objtype.o
mp_unpack_ex                                      build/py/runtime.o
                                                  build/py/vm.o
mp_unpack_sequence                                build/py/runtime.o
                                                  build/py/vm.o
mp_vprintf                                        build/py/mpprint.o
                                                  build/lib/utils/printf.o
                                                  build/py/objexcept.o
                                                  build/py/vstr.o
nlr_jump                                          build/py/nlrthumb.o
                                                  build/py/builtinimport.o
                                                  build/py/objstr.o
                                                  build/py/objgetitemiter.o
                                                  build/py/objgenerator.o
                                                  build/py/objfun.o
                                                  build/py/objdict.o
                                                  build/py/scheduler.o
                                                  build/py/runtime.o
                                                  build/py/parsenum.o
                                                  build/py/compile.o
                                                  build/py/parse.o
nlr_jump_fail                                     build/main.o
                                                  build/py/nlrthumb.o
nlr_pop                                           build/py/nlr.o
                                                  build/lib/utils/pyexec.o
                                                  build/main.o
                                                  build/py/vm.o
                                                  build/py/builtinimport.o
                                                  build/py/objgetitemiter.o
                                                  build/py/runtime_utils.o
                                                  build/py/runtime.o
nlr_push                                          build/py/nlrthumb.o
                                                  build/lib/utils/pyexec.o
                                                  build/main.o
                                                  build/py/vm.o
                                                  build/py/builtinimport.o
                                                  build/py/objgetitemiter.o
                                                  build/py/runtime_utils.o
                                                  build/py/runtime.o
nlr_push_tail                                     build/py/nlr.o
                                                  build/py/nlrthumb.o
printf                                            build/lib/utils/printf.o
                                                  build/lib/utils/pyexec.o
putchar                                           build/lib/utils/printf.o
puts                                              build/lib/utils/printf.o
pyexec_file                                       build/lib/utils/pyexec.o
pyexec_file_if_exists                             build/lib/utils/pyexec.o
pyexec_friendly_repl                              build/lib/utils/pyexec.o
                                                  build/main.o
pyexec_frozen_module                              build/lib/utils/pyexec.o
pyexec_mode_kind                                  build/lib/utils/pyexec.o
pyexec_raw_repl                                   build/lib/utils/pyexec.o
pyexec_system_exit                                build/lib/utils/pyexec.o
qstr_compute_hash                                 build/py/qstr.o
                                                  build/py/objstr.o
                                                  build/py/objexcept.o
                                                  build/py/runtime.o
qstr_data                                         build/py/qstr.o
                                                  build/py/repl.o
                                                  build/py/objstr.o
                                                  build/py/runtime.o
                                                  build/py/compile.o
                                                  build/py/mpprint.o
qstr_find_strn                                    build/py/qstr.o
                                                  build/py/repl.o
                                                  build/py/objstr.o
                                                  build/py/parse.o
qstr_from_str                                     build/py/qstr.o
qstr_from_strn                                    build/py/qstr.o
                                                  build/py/builtinimport.o
                                                  build/py/objstr.o
                                                  build/py/runtime.o
                                                  build/py/compile.o
                                                  build/py/parse.o
qstr_hash                                         build/py/qstr.o
                                                  build/py/objstr.o
                                                  build/py/map.o
                                                  build/py/runtime.o
qstr_init                                         build/py/qstr.o
                                                  build/py/runtime.o
qstr_len                                          build/py/qstr.o
                                                  build/py/objstr.o
                                                  build/py/obj.o
                                                  build/py/runtime.o
                                                  build/py/compile.o
qstr_pool_info                                    build/py/qstr.o
qstr_str                                          build/py/qstr.o
                                                  build/py/builtinimport.o
                                                  build/py/objtype.o
                                                  build/py/objexcept.o
                                                  build/py/obj.o
                                                  build/py/runtime.o
raw_code_frozentest__lt_module_gt_                build/build/_frozen_mpy.o
readline                                          build/lib/mp-readline/readline.o
                                                  build/lib/utils/pyexec.o
readline_init                                     build/lib/mp-readline/readline.o
readline_init0                                    build/lib/mp-readline/readline.o
readline_note_newline                             build/lib/mp-readline/readline.o
readline_process_char                             build/lib/mp-readline/readline.o
readline_push_history                             build/lib/mp-readline/readline.o
riceive_Data                                      build/serial.o
                                                  build/mhalport.o
ringbuf_get16                                     build/py/ringbuf.o
ringbuf_peek16                                    build/py/ringbuf.o
ringbuf_put16                                     build/py/ringbuf.o
scope_check_to_close_over                         build/py/scope.o
                                                  build/py/compile.o
scope_find                                        build/py/scope.o
                                                  build/py/emitcommon.o
                                                  build/py/compile.o
scope_find_global                                 build/py/scope.o
                                                  build/py/compile.o
scope_find_or_add_id                              build/py/scope.o
                                                  build/py/emitcommon.o
                                                  build/py/compile.o
scope_free                                        build/py/scope.o
                                                  build/py/compile.o
scope_new                                         build/py/scope.o
                                                  build/py/compile.o
ser_AvailChar                                     build/serial.o
                                                  build/vcomdemo.o
                                                  build/cdcuser.o
ser_ClosePort                                     build/serial.o
                                                  build/cdcuser.o
ser_InitPort0                                     build/serial.o
                                                  build/cdcuser.o
ser_InitPort1                                     build/serial.o
                                                  build/cdcuser.o
ser_LineState                                     build/serial.o
                                                  build/cdcuser.o
ser_OpenPort                                      build/serial.o
                                                  build/cdcuser.o
ser_Read                                          build/serial.o
                                                  build/vcomdemo.o
ser_Write                                         build/serial.o
ser_in                                            build/serial.o
ser_lineState                                     build/serial.o
ser_out                                           build/serial.o
ser_txRestart                                     build/serial.o
snprintf                                          build/lib/utils/printf.o
                                                  build/lib/mp-readline/readline.o
stpcpy                                            build/lib/libc/string0.o
str_endswith_obj                                  build/py/objstr.o
str_find_obj                                      build/py/objstr.o
str_format_obj                                    build/py/objstr.o
str_index_obj                                     build/py/objstr.o
str_index_to_ptr                                  build/py/objstr.o
str_isalpha_obj                                   build/py/objstr.o
str_isdigit_obj                                   build/py/objstr.o
str_islower_obj                                   build/py/objstr.o
str_isspace_obj                                   build/py/objstr.o
str_isupper_obj                                   build/py/objstr.o
str_join_obj                                      build/py/objstr.o
str_lower_obj                                     build/py/objstr.o
str_lstrip_obj                                    build/py/objstr.o
str_replace_obj                                   build/py/objstr.o
str_rfind_obj                                     build/py/objstr.o
str_rindex_obj                                    build/py/objstr.o
str_rsplit_obj                                    build/py/objstr.o
str_rstrip_obj                                    build/py/objstr.o
str_split_obj                                     build/py/objstr.o
str_startswith_obj                                build/py/objstr.o
str_strip_obj                                     build/py/objstr.o
str_upper_obj                                     build/py/objstr.o
strcat                                            build/lib/libc/string0.o
strchr                                            build/lib/libc/string0.o
                                                  build/py/builtinimport.o
                                                  build/py/objstr.o
strcmp                                            build/lib/libc/string0.o
                                                  build/lib/mp-readline/readline.o
                                                  build/py/lexer.o
strcpy                                            build/lib/libc/string0.o
strcspn                                           build/lib/libc/string0.o
strlen                                            build/lib/libc/string0.o
                                                  build/lib/mp-readline/readline.o
                                                  build/lib/utils/pyexec.o
                                                  build/lib/utils/stdout_helpers.o
                                                  build/lib/utils/printf.o
                                                  build/main.o
                                                  build/py/frozenmod.o
                                                  build/py/binary.o
                                                  build/py/objint.o
                                                  build/py/objexcept.o
                                                  build/py/mpprint.o
                                                  build/py/vstr.o
                                                  build/py/qstr.o
strncmp                                           build/lib/libc/string0.o
                                                  build/py/repl.o
strncpy                                           build/lib/libc/string0.o
strspn                                            build/lib/libc/string0.o
strstr                                            build/lib/libc/string0.o
unichar_isalnum                                   build/py/unicode.o
unichar_isalpha                                   build/py/unicode.o
                                                  build/py/repl.o
                                                  build/py/objstr.o
                                                  build/py/lexer.o
unichar_isdigit                                   build/py/unicode.o
                                                  build/py/repl.o
                                                  build/py/objstr.o
                                                  build/py/lexer.o
unichar_isident                                   build/py/unicode.o
                                                  build/py/repl.o
unichar_islower                                   build/py/unicode.o
                                                  build/py/objstr.o
unichar_isspace                                   build/py/unicode.o
                                                  build/py/objstr.o
                                                  build/py/parsenum.o
                                                  build/py/lexer.o
unichar_isupper                                   build/py/unicode.o
                                                  build/py/objstr.o
unichar_isxdigit                                  build/py/unicode.o
                                                  build/py/lexer.o
unichar_tolower                                   build/py/unicode.o
                                                  build/py/objstr.o
unichar_toupper                                   build/py/unicode.o
                                                  build/py/objstr.o
unichar_xdigit_value                              build/py/unicode.o
                                                  build/py/lexer.o
vprintf                                           build/lib/utils/printf.o
vsnprintf                                         build/lib/utils/printf.o
vstr_add_byte                                     build/py/vstr.o
                                                  build/lib/utils/pyexec.o
                                                  build/py/objstr.o
                                                  build/py/lexer.o
vstr_add_char                                     build/py/vstr.o
                                                  build/py/builtinimport.o
                                                  build/py/lexer.o
vstr_add_len                                      build/py/vstr.o
                                                  build/py/stream.o
vstr_add_str                                      build/py/vstr.o
                                                  build/lib/mp-readline/readline.o
                                                  build/py/builtinimport.o
vstr_add_strn                                     build/py/vstr.o
                                                  build/lib/mp-readline/readline.o
                                                  build/py/builtinimport.o
vstr_clear                                        build/py/vstr.o
                                                  build/lib/utils/pyexec.o
                                                  build/py/stream.o
                                                  build/py/objstr.o
                                                  build/py/lexer.o
vstr_cut_head_bytes                               build/py/vstr.o
vstr_cut_out_bytes                                build/py/vstr.o
                                                  build/lib/mp-readline/readline.o
vstr_cut_tail_bytes                               build/py/vstr.o
                                                  build/lib/mp-readline/readline.o
                                                  build/py/stream.o
                                                  build/py/lexer.o
vstr_extend                                       build/py/vstr.o
                                                  build/py/stream.o
vstr_free                                         build/py/vstr.o
vstr_hint_size                                    build/py/vstr.o
vstr_init                                         build/py/vstr.o
                                                  build/lib/utils/pyexec.o
                                                  build/py/stream.o
                                                  build/py/objstr.o
                                                  build/py/lexer.o
vstr_init_fixed_buf                               build/py/vstr.o
                                                  build/py/builtinimport.o
vstr_init_len                                     build/py/vstr.o
                                                  build/py/stream.o
                                                  build/py/objstr.o
                                                  build/py/objint.o
vstr_init_print                                   build/py/vstr.o
                                                  build/py/modbuiltins.o
                                                  build/py/objstr.o
vstr_ins_byte                                     build/py/vstr.o
                                                  build/lib/mp-readline/readline.o
vstr_ins_char                                     build/py/vstr.o
                                                  build/lib/mp-readline/readline.o
vstr_new                                          build/py/vstr.o
vstr_null_terminated_str                          build/py/vstr.o
                                                  build/lib/mp-readline/readline.o
                                                  build/lib/utils/pyexec.o
                                                  build/py/builtinimport.o
                                                  build/py/objstr.o
                                                  build/py/lexer.o
vstr_printf                                       build/py/vstr.o
vstr_vprintf                                      build/py/vstr.o
